Archive member included because of file (symbol)

C:/MinGW/msys/1.0/dev/lib/libgobject-2.0.dll.a(d000327.o)
                              mrp-marshal.o (g_value_peek_pointer)
C:/MinGW/msys/1.0/dev/lib/libgobject-2.0.dll.a(d000280.o)
                              mrp-application.o (g_type_register_static)
C:/MinGW/msys/1.0/dev/lib/libgobject-2.0.dll.a(d000220.o)
                              mrp-application.o (g_type_check_class_cast)
C:/MinGW/msys/1.0/dev/lib/libgobject-2.0.dll.a(d000232.o)
                              mrp-application.o (g_type_class_peek_parent)
C:/MinGW/msys/1.0/dev/lib/libgobject-2.0.dll.a(d000223.o)
                              mrp-application.o (g_type_check_instance_cast)
C:/MinGW/msys/1.0/dev/lib/libgobject-2.0.dll.a(d000224.o)
                              mrp-application.o (g_type_check_instance_is_a)
C:/MinGW/msys/1.0/dev/lib/libgobject-2.0.dll.a(d000098.o)
                              mrp-application.o (g_object_new)
C:/MinGW/msys/1.0/dev/lib/libgobject-2.0.dll.a(d000139.o)
                              mrp-assignment.o (g_param_spec_object)
C:/MinGW/msys/1.0/dev/lib/libgobject-2.0.dll.a(d000080.o)
                              mrp-assignment.o (g_object_class_install_property)
C:/MinGW/msys/1.0/dev/lib/libgobject-2.0.dll.a(d000135.o)
                              mrp-assignment.o (g_param_spec_int)
C:/MinGW/msys/1.0/dev/lib/libgobject-2.0.dll.a(d000118.o)
                              mrp-assignment.o (g_object_unref)
C:/MinGW/msys/1.0/dev/lib/libgobject-2.0.dll.a(d000316.o)
                              mrp-assignment.o (g_value_get_object)
C:/MinGW/msys/1.0/dev/lib/libgobject-2.0.dll.a(d000103.o)
                              mrp-assignment.o (g_object_ref)
C:/MinGW/msys/1.0/dev/lib/libgobject-2.0.dll.a(d000313.o)
                              mrp-assignment.o (g_value_get_int)
C:/MinGW/msys/1.0/dev/lib/libgobject-2.0.dll.a(d000343.o)
                              mrp-assignment.o (g_value_set_object)
C:/MinGW/msys/1.0/dev/lib/libgobject-2.0.dll.a(d000340.o)
                              mrp-assignment.o (g_value_set_int)
C:/MinGW/msys/1.0/dev/lib/libgobject-2.0.dll.a(d000266.o)
                              mrp-assignment.o (g_type_name)
C:/MinGW/msys/1.0/dev/lib/libgobject-2.0.dll.a(d000155.o)
                              mrp-qualification.o (g_param_spec_string)
C:/MinGW/msys/1.0/dev/lib/libgobject-2.0.dll.a(d000319.o)
                              mrp-qualification.o (g_value_get_string)
C:/MinGW/msys/1.0/dev/lib/libgobject-2.0.dll.a(d000350.o)
                              mrp-qualification.o (g_value_set_string)
C:/MinGW/msys/1.0/dev/lib/libgobject-2.0.dll.a(d000034.o)
                              mrp-calendar.o (g_cclosure_marshal_VOID__VOID)
C:/MinGW/msys/1.0/dev/lib/libgobject-2.0.dll.a(d000200.o)
                              mrp-calendar.o (g_signal_new)
C:/MinGW/msys/1.0/dev/lib/libgobject-2.0.dll.a(d000142.o)
                              mrp-calendar.o (g_param_spec_pointer)
C:/MinGW/msys/1.0/dev/lib/libgobject-2.0.dll.a(d000318.o)
                              mrp-calendar.o (g_value_get_pointer)
C:/MinGW/msys/1.0/dev/lib/libgobject-2.0.dll.a(d000108.o)
                              mrp-calendar.o (g_object_set)
C:/MinGW/msys/1.0/dev/lib/libgobject-2.0.dll.a(d000182.o)
                              mrp-calendar.o (g_signal_emit)
C:/MinGW/msys/1.0/dev/lib/libgobject-2.0.dll.a(d000011.o)
                              mrp-calendar.o (g_boxed_type_register_static)
C:/MinGW/msys/1.0/dev/lib/libgobject-2.0.dll.a(d000183.o)
                              mrp-day.o (g_signal_emit_by_name)
C:/MinGW/msys/1.0/dev/lib/libgobject-2.0.dll.a(d000180.o)
                              mrp-group.o (g_signal_connect_data)
C:/MinGW/msys/1.0/dev/lib/libgobject-2.0.dll.a(d000194.o)
                              mrp-group.o (g_signal_handlers_disconnect_matched)
C:/MinGW/msys/1.0/dev/lib/libgobject-2.0.dll.a(d000320.o)
                              mrp-object.o (g_value_get_type)
C:/MinGW/msys/1.0/dev/lib/libgobject-2.0.dll.a(d000326.o)
                              mrp-object.o (g_value_init)
C:/MinGW/msys/1.0/dev/lib/libgobject-2.0.dll.a(d000298.o)
                              mrp-object.o (g_value_copy)
C:/MinGW/msys/1.0/dev/lib/libgobject-2.0.dll.a(d000365.o)
                              mrp-object.o (g_value_unset)
C:/MinGW/msys/1.0/dev/lib/libgobject-2.0.dll.a(d000168.o)
                              mrp-object.o (g_param_value_set_default)
C:/MinGW/msys/1.0/dev/lib/libgobject-2.0.dll.a(d000181.o)
                              mrp-object.o (g_signal_connect_object)
C:/MinGW/msys/1.0/dev/lib/libgobject-2.0.dll.a(d000078.o)
                              mrp-object.o (g_object_class_find_property)
C:/MinGW/msys/1.0/dev/lib/libgobject-2.0.dll.a(d000286.o)
                              mrp-object.o (g_type_value_table_peek)
C:/MinGW/msys/1.0/dev/lib/libgobject-2.0.dll.a(d000111.o)
                              mrp-object.o (g_object_set_property)
C:/MinGW/msys/1.0/dev/lib/libgobject-2.0.dll.a(d000090.o)
                              mrp-object.o (g_object_get_property)
C:/MinGW/msys/1.0/dev/lib/libgobject-2.0.dll.a(d000025.o)
                              mrp-project.o (g_cclosure_marshal_VOID__OBJECT)
C:/MinGW/msys/1.0/dev/lib/libgobject-2.0.dll.a(d000016.o)
                              mrp-project.o (g_cclosure_marshal_VOID__BOOLEAN)
C:/MinGW/msys/1.0/dev/lib/libgobject-2.0.dll.a(d000027.o)
                              mrp-project.o (g_cclosure_marshal_VOID__POINTER)
C:/MinGW/msys/1.0/dev/lib/libgobject-2.0.dll.a(d000147.o)
                              mrp-project.o (g_param_spec_pool_new)
C:/MinGW/msys/1.0/dev/lib/libgobject-2.0.dll.a(d000315.o)
                              mrp-project.o (g_value_get_long)
C:/MinGW/msys/1.0/dev/lib/libgobject-2.0.dll.a(d000302.o)
                              mrp-project.o (g_value_dup_string)
C:/MinGW/msys/1.0/dev/lib/libgobject-2.0.dll.a(d000342.o)
                              mrp-project.o (g_value_set_long)
C:/MinGW/msys/1.0/dev/lib/libgobject-2.0.dll.a(d000347.o)
                              mrp-project.o (g_value_set_pointer)
C:/MinGW/msys/1.0/dev/lib/libgobject-2.0.dll.a(d000089.o)
                              mrp-project.o (g_object_get_data)
C:/MinGW/msys/1.0/dev/lib/libgobject-2.0.dll.a(d000259.o)
                              mrp-project.o (g_type_module_get_type)
C:/MinGW/msys/1.0/dev/lib/libgobject-2.0.dll.a(d000264.o)
                              mrp-project.o (g_type_module_unuse)
C:/MinGW/msys/1.0/dev/lib/libgobject-2.0.dll.a(d000088.o)
                              mrp-project.o (g_object_get)
C:/MinGW/msys/1.0/dev/lib/libgobject-2.0.dll.a(d000146.o)
                              mrp-project.o (g_param_spec_pool_lookup)
C:/MinGW/msys/1.0/dev/lib/libgobject-2.0.dll.a(d000145.o)
                              mrp-project.o (g_param_spec_pool_list_owned)
C:/MinGW/msys/1.0/dev/lib/libgobject-2.0.dll.a(d000143.o)
                              mrp-project.o (g_param_spec_pool_insert)
C:/MinGW/msys/1.0/dev/lib/libgobject-2.0.dll.a(d000148.o)
                              mrp-project.o (g_param_spec_pool_remove)
C:/MinGW/msys/1.0/dev/lib/libgobject-2.0.dll.a(d000128.o)
                              mrp-resource.o (g_param_spec_float)
C:/MinGW/msys/1.0/dev/lib/libgobject-2.0.dll.a(d000122.o)
                              mrp-resource.o (g_param_spec_boolean)
C:/MinGW/msys/1.0/dev/lib/libgobject-2.0.dll.a(d000305.o)
                              mrp-resource.o (g_value_get_boolean)
C:/MinGW/msys/1.0/dev/lib/libgobject-2.0.dll.a(d000311.o)
                              mrp-resource.o (g_value_get_float)
C:/MinGW/msys/1.0/dev/lib/libgobject-2.0.dll.a(d000330.o)
                              mrp-resource.o (g_value_set_boolean)
C:/MinGW/msys/1.0/dev/lib/libgobject-2.0.dll.a(d000337.o)
                              mrp-resource.o (g_value_set_float)
C:/MinGW/msys/1.0/dev/lib/libgobject-2.0.dll.a(d000263.o)
                              mrp-storage-module-factory.o (g_type_module_set_name)
C:/MinGW/msys/1.0/dev/lib/libgobject-2.0.dll.a(d000265.o)
                              mrp-storage-module-factory.o (g_type_module_use)
C:/MinGW/msys/1.0/dev/lib/libgobject-2.0.dll.a(d000192.o)
                              mrp-task-manager.o (g_signal_handlers_block_matched)
C:/MinGW/msys/1.0/dev/lib/libgobject-2.0.dll.a(d000195.o)
                              mrp-task-manager.o (g_signal_handlers_unblock_matched)
C:/MinGW/msys/1.0/dev/lib/libgobject-2.0.dll.a(d000101.o)
                              mrp-task-manager.o (g_object_notify)
C:/MinGW/msys/1.0/dev/lib/libgobject-2.0.dll.a(d000126.o)
                              mrp-task.o (g_param_spec_enum)
C:/MinGW/msys/1.0/dev/lib/libgobject-2.0.dll.a(d000123.o)
                              mrp-task.o (g_param_spec_boxed)
C:/MinGW/msys/1.0/dev/lib/libgobject-2.0.dll.a(d000309.o)
                              mrp-task.o (g_value_get_enum)
C:/MinGW/msys/1.0/dev/lib/libgobject-2.0.dll.a(d000306.o)
                              mrp-task.o (g_value_get_boxed)
C:/MinGW/msys/1.0/dev/lib/libgobject-2.0.dll.a(d000335.o)
                              mrp-task.o (g_value_set_enum)
C:/MinGW/msys/1.0/dev/lib/libgobject-2.0.dll.a(d000331.o)
                              mrp-task.o (g_value_set_boxed)
C:/MinGW/msys/1.0/dev/lib/libgobject-2.0.dll.a(d000060.o)
                              mrp-types.o (g_enum_register_static)
C:/MinGW/msys/1.0/dev/lib/libgobject-2.0.dll.a(d000151.o)
                              mrp-property.o (g_param_spec_set_qdata)
C:/MinGW/msys/1.0/dev/lib/libgobject-2.0.dll.a(d000152.o)
                              mrp-property.o (g_param_spec_set_qdata_full)
C:/MinGW/msys/1.0/dev/lib/libgobject-2.0.dll.a(d000132.o)
                              mrp-property.o (g_param_spec_get_qdata)
C:/MinGW/msys/1.0/dev/lib/libgobject-2.0.dll.a(d000149.o)
                              mrp-property.o (g_param_spec_ref)
C:/MinGW/msys/1.0/dev/lib/libgobject-2.0.dll.a(d000162.o)
                              mrp-property.o (g_param_spec_unref)
C:/MinGW/msys/1.0/dev/lib/libgobject-2.0.dll.a(d000163.o)
                              mrp-property.o (g_param_spec_value_array)
C:/MinGW/msys/1.0/dev/lib/libgobject-2.0.dll.a(d000138.o)
                              mrp-time.o (g_param_spec_long)
C:/MinGW/msys/1.0/dev/lib/libgobject-2.0.dll.a(d000000.o)
                              C:/MinGW/msys/1.0/dev/lib/libgobject-2.0.dll.a(d000327.o) (_head_libgobject_2_0_0_dll)
C:/MinGW/msys/1.0/dev/lib/libgobject-2.0.dll.a(d000368.o)
                              C:/MinGW/msys/1.0/dev/lib/libgobject-2.0.dll.a(d000000.o) (libgobject_2_0_0_dll_iname)
C:/MinGW/msys/1.0/dev/lib/libgmodule-2.0.dll.a(d000006.o)
                              mrp-file-module.o (g_module_open_utf8)
C:/MinGW/msys/1.0/dev/lib/libgmodule-2.0.dll.a(d000003.o)
                              mrp-file-module.o (g_module_error)
C:/MinGW/msys/1.0/dev/lib/libgmodule-2.0.dll.a(d000008.o)
                              mrp-file-module.o (g_module_symbol)
C:/MinGW/msys/1.0/dev/lib/libgmodule-2.0.dll.a(d000002.o)
                              mrp-storage-module-factory.o (g_module_close)
C:/MinGW/msys/1.0/dev/lib/libgmodule-2.0.dll.a(d000001.o)
                              mrp-storage-module-factory.o (g_module_build_path)
C:/MinGW/msys/1.0/dev/lib/libgmodule-2.0.dll.a(d000000.o)
                              C:/MinGW/msys/1.0/dev/lib/libgmodule-2.0.dll.a(d000006.o) (_head_libgmodule_2_0_0_dll)
C:/MinGW/msys/1.0/dev/lib/libgmodule-2.0.dll.a(d000009.o)
                              C:/MinGW/msys/1.0/dev/lib/libgmodule-2.0.dll.a(d000000.o) (libgmodule_2_0_0_dll_iname)
C:/MinGW/msys/1.0/dev/lib/libglib-2.0.dll.a(d000832.o)
                              mrp-marshal.o (g_return_if_fail_warning)
C:/MinGW/msys/1.0/dev/lib/libglib-2.0.dll.a(d000361.o)
                              mrp-application.o (g_hash_table_new)
C:/MinGW/msys/1.0/dev/lib/libglib-2.0.dll.a(d000538.o)
                              mrp-application.o (g_log)
C:/MinGW/msys/1.0/dev/lib/libglib-2.0.dll.a(d000583.o)
                              mrp-application.o (g_malloc0_n)
C:/MinGW/msys/1.0/dev/lib/libglib-2.0.dll.a(d000324.o)
                              mrp-application.o (g_free)
C:/MinGW/msys/1.0/dev/lib/libglib-2.0.dll.a(d000512.o)
                              mrp-application.o (g_list_foreach)
C:/MinGW/msys/1.0/dev/lib/libglib-2.0.dll.a(d000513.o)
                              mrp-application.o (g_list_free)
C:/MinGW/msys/1.0/dev/lib/libglib-2.0.dll.a(d000527.o)
                              mrp-application.o (g_list_prepend)
C:/MinGW/msys/1.0/dev/lib/libglib-2.0.dll.a(d000359.o)
                              mrp-application.o (g_hash_table_lookup)
C:/MinGW/msys/1.0/dev/lib/libglib-2.0.dll.a(d000353.o)
                              mrp-application.o (g_hash_table_insert)
C:/MinGW/msys/1.0/dev/lib/libglib-2.0.dll.a(d000040.o)
                              mrp-application.o (g_assertion_message_expr)
C:/MinGW/msys/1.0/dev/lib/libglib-2.0.dll.a(d000364.o)
                              mrp-application.o (g_hash_table_remove)
C:/MinGW/msys/1.0/dev/lib/libglib-2.0.dll.a(d001009.o)
                              mrp-qualification.o (g_strdup)
C:/MinGW/msys/1.0/dev/lib/libglib-2.0.dll.a(d000362.o)
                              mrp-calendar.o (g_hash_table_new_full)
C:/MinGW/msys/1.0/dev/lib/libglib-2.0.dll.a(d000346.o)
                              mrp-calendar.o (g_hash_table_destroy)
C:/MinGW/msys/1.0/dev/lib/libglib-2.0.dll.a(d000529.o)
                              mrp-calendar.o (g_list_remove)
C:/MinGW/msys/1.0/dev/lib/libglib-2.0.dll.a(d000507.o)
                              mrp-calendar.o (g_list_copy)
C:/MinGW/msys/1.0/dev/lib/libglib-2.0.dll.a(d000348.o)
                              mrp-calendar.o (g_hash_table_foreach)
C:/MinGW/msys/1.0/dev/lib/libglib-2.0.dll.a(d000533.o)
                              mrp-calendar.o (g_list_sort)
C:/MinGW/msys/1.0/dev/lib/libglib-2.0.dll.a(d000532.o)
                              mrp-calendar.o (g_list_reverse)
C:/MinGW/msys/1.0/dev/lib/libglib-2.0.dll.a(d000737.o)
                              mrp-day.o (g_quark_from_string)
C:/MinGW/msys/1.0/dev/lib/libglib-2.0.dll.a(d000368.o)
                              mrp-object.o (g_hash_table_steal)
C:/MinGW/msys/1.0/dev/lib/libglib-2.0.dll.a(d000036.o)
                              mrp-object.o (g_assertion_message)
C:/MinGW/msys/1.0/dev/lib/libglib-2.0.dll.a(d000291.o)
                              mrp-file-module.o (g_dir_open_utf8)
C:/MinGW/msys/1.0/dev/lib/libglib-2.0.dll.a(d000998.o)
                              mrp-file-module.o (g_str_has_suffix)
C:/MinGW/msys/1.0/dev/lib/libglib-2.0.dll.a(d000126.o)
                              mrp-file-module.o (g_build_filename)
C:/MinGW/msys/1.0/dev/lib/libglib-2.0.dll.a(d000292.o)
                              mrp-file-module.o (g_dir_read_name_utf8)
C:/MinGW/msys/1.0/dev/lib/libglib-2.0.dll.a(d000290.o)
                              mrp-file-module.o (g_dir_close)
C:/MinGW/msys/1.0/dev/lib/libglib-2.0.dll.a(d000891.o)
                              mrp-file-module.o (g_set_error)
C:/MinGW/msys/1.0/dev/lib/libglib-2.0.dll.a(d000309.o)
                              mrp-project.o (g_file_get_contents_utf8)
C:/MinGW/msys/1.0/dev/lib/libglib-2.0.dll.a(d001006.o)
                              mrp-project.o (g_strconcat)
C:/MinGW/msys/1.0/dev/lib/libglib-2.0.dll.a(d000024.o)
                              mrp-project.o (g_ascii_strcasecmp)
C:/MinGW/msys/1.0/dev/lib/libglib-2.0.dll.a(d000505.o)
                              mrp-project.o (g_list_append)
C:/MinGW/msys/1.0/dev/lib/libglib-2.0.dll.a(d000515.o)
                              mrp-project.o (g_list_index)
C:/MinGW/msys/1.0/dev/lib/libglib-2.0.dll.a(d001010.o)
                              mrp-project.o (g_strdup_printf)
C:/MinGW/msys/1.0/dev/lib/libglib-2.0.dll.a(d000996.o)
                              mrp-storage-module-factory.o (g_str_equal)
C:/MinGW/msys/1.0/dev/lib/libglib-2.0.dll.a(d000999.o)
                              mrp-storage-module-factory.o (g_str_hash)
C:/MinGW/msys/1.0/dev/lib/libglib-2.0.dll.a(d001038.o)
                              mrp-task-manager.o (g_string_insert_c)
C:/MinGW/msys/1.0/dev/lib/libglib-2.0.dll.a(d000663.o)
                              mrp-task-manager.o (g_node_traverse)
C:/MinGW/msys/1.0/dev/lib/libglib-2.0.dll.a(d001041.o)
                              mrp-task-manager.o (g_string_new)
C:/MinGW/msys/1.0/dev/lib/libglib-2.0.dll.a(d001035.o)
                              mrp-task-manager.o (g_string_free)
C:/MinGW/msys/1.0/dev/lib/libglib-2.0.dll.a(d000712.o)
                              mrp-task-manager.o (g_print)
C:/MinGW/msys/1.0/dev/lib/libglib-2.0.dll.a(d000531.o)
                              mrp-task-manager.o (g_list_remove_link)
C:/MinGW/msys/1.0/dev/lib/libglib-2.0.dll.a(d000584.o)
                              mrp-task-manager.o (g_malloc_n)
C:/MinGW/msys/1.0/dev/lib/libglib-2.0.dll.a(d000721.o)
                              mrp-task-manager.o (g_ptr_array_new)
C:/MinGW/msys/1.0/dev/lib/libglib-2.0.dll.a(d000718.o)
                              mrp-task-manager.o (g_ptr_array_add)
C:/MinGW/msys/1.0/dev/lib/libglib-2.0.dll.a(d000732.o)
                              mrp-task-manager.o (g_ptr_array_sort)
C:/MinGW/msys/1.0/dev/lib/libglib-2.0.dll.a(d000720.o)
                              mrp-task-manager.o (g_ptr_array_free)
C:/MinGW/msys/1.0/dev/lib/libglib-2.0.dll.a(d000521.o)
                              mrp-task-manager.o (g_list_length)
C:/MinGW/msys/1.0/dev/lib/libglib-2.0.dll.a(d000509.o)
                              mrp-task-manager.o (g_list_find)
C:/MinGW/msys/1.0/dev/lib/libglib-2.0.dll.a(d000714.o)
                              mrp-task-manager.o (g_printf)
C:/MinGW/msys/1.0/dev/lib/libglib-2.0.dll.a(d000523.o)
                              mrp-task-manager.o (g_list_nth_data)
C:/MinGW/msys/1.0/dev/lib/libglib-2.0.dll.a(d000506.o)
                              mrp-task-manager.o (g_list_concat)
C:/MinGW/msys/1.0/dev/lib/libglib-2.0.dll.a(d001004.o)
                              mrp-task-manager.o (g_strcmp0)
C:/MinGW/msys/1.0/dev/lib/libglib-2.0.dll.a(d000657.o)
                              mrp-task.o (g_node_new)
C:/MinGW/msys/1.0/dev/lib/libglib-2.0.dll.a(d000643.o)
                              mrp-task.o (g_node_destroy)
C:/MinGW/msys/1.0/dev/lib/libglib-2.0.dll.a(d000664.o)
                              mrp-task.o (g_node_unlink)
C:/MinGW/msys/1.0/dev/lib/libglib-2.0.dll.a(d000652.o)
                              mrp-task.o (g_node_last_child)
C:/MinGW/msys/1.0/dev/lib/libglib-2.0.dll.a(d000650.o)
                              mrp-task.o (g_node_insert_before)
C:/MinGW/msys/1.0/dev/lib/libglib-2.0.dll.a(d000660.o)
                              mrp-task.o (g_node_prepend)
C:/MinGW/msys/1.0/dev/lib/libglib-2.0.dll.a(d000649.o)
                              mrp-task.o (g_node_insert_after)
C:/MinGW/msys/1.0/dev/lib/libglib-2.0.dll.a(d000648.o)
                              mrp-task.o (g_node_insert)
C:/MinGW/msys/1.0/dev/lib/libglib-2.0.dll.a(d000655.o)
                              mrp-task.o (g_node_n_children)
C:/MinGW/msys/1.0/dev/lib/libglib-2.0.dll.a(d000658.o)
                              mrp-task.o (g_node_nth_child)
C:/MinGW/msys/1.0/dev/lib/libglib-2.0.dll.a(d000638.o)
                              mrp-task.o (g_node_child_position)
C:/MinGW/msys/1.0/dev/lib/libglib-2.0.dll.a(d000642.o)
                              mrp-task.o (g_node_depth)
C:/MinGW/msys/1.0/dev/lib/libglib-2.0.dll.a(d000736.o)
                              mrp-property.o (g_quark_from_static_string)
C:/MinGW/msys/1.0/dev/lib/libglib-2.0.dll.a(d000345.o)
                              mrp-time.o (g_getenv_utf8)
C:/MinGW/msys/1.0/dev/lib/libglib-2.0.dll.a(d000896.o)
                              mrp-time.o (g_setenv_utf8)
C:/MinGW/msys/1.0/dev/lib/libglib-2.0.dll.a(d001222.o)
                              mrp-time.o (g_unsetenv_utf8)
C:/MinGW/msys/1.0/dev/lib/libglib-2.0.dll.a(d000211.o)
                              mrp-time.o (g_date_get_weekday)
C:/MinGW/msys/1.0/dev/lib/libglib-2.0.dll.a(d000208.o)
                              mrp-time.o (g_date_get_month)
C:/MinGW/msys/1.0/dev/lib/libglib-2.0.dll.a(d000581.o)
                              mrp-time.o (g_malloc)
C:/MinGW/msys/1.0/dev/lib/libglib-2.0.dll.a(d000537.o)
                              mrp-time.o (g_locale_to_utf8)
C:/MinGW/msys/1.0/dev/lib/libglib-2.0.dll.a(d000795.o)
                              mrp-time.o (g_realloc)
C:/MinGW/msys/1.0/dev/lib/libglib-2.0.dll.a(d001237.o)
                              mrp-time.o (g_utf8_get_char)
C:/MinGW/msys/1.0/dev/lib/libglib-2.0.dll.a(d000582.o)
                              mrp-time.o (g_malloc0)
C:/MinGW/msys/1.0/dev/lib/libglib-2.0.dll.a(d001212.o)
                              mrp-time.o (g_unichar_to_utf8)
C:/MinGW/msys/1.0/dev/lib/libglib-2.0.dll.a(d000212.o)
                              mrp-time.o (g_date_get_year)
C:/MinGW/msys/1.0/dev/lib/libglib-2.0.dll.a(d000201.o)
                              mrp-time.o (g_date_get_day)
C:/MinGW/msys/1.0/dev/lib/libglib-2.0.dll.a(d000197.o)
                              mrp-time.o (g_date_clear)
C:/MinGW/msys/1.0/dev/lib/libglib-2.0.dll.a(d000221.o)
                              mrp-time.o (g_date_set_dmy)
C:/MinGW/msys/1.0/dev/lib/libglib-2.0.dll.a(d000195.o)
                              mrp-time.o (g_date_add_years)
C:/MinGW/msys/1.0/dev/lib/libglib-2.0.dll.a(d000194.o)
                              mrp-time.o (g_date_add_months)
C:/MinGW/msys/1.0/dev/lib/libglib-2.0.dll.a(d000193.o)
                              mrp-time.o (g_date_add_days)
C:/MinGW/msys/1.0/dev/lib/libglib-2.0.dll.a(d000230.o)
                              mrp-time.o (g_date_subtract_days)
C:/MinGW/msys/1.0/dev/lib/libglib-2.0.dll.a(d000231.o)
                              mrp-time.o (g_date_subtract_months)
C:/MinGW/msys/1.0/dev/lib/libglib-2.0.dll.a(d000232.o)
                              mrp-time.o (g_date_subtract_years)
C:/MinGW/msys/1.0/dev/lib/libglib-2.0.dll.a(d000229.o)
                              mrp-time.o (g_date_strftime)
C:/MinGW/msys/1.0/dev/lib/libglib-2.0.dll.a(d000199.o)
                              mrp-time.o (g_date_days_between)
C:/MinGW/msys/1.0/dev/lib/libglib-2.0.dll.a(d000205.o)
                              mrp-time.o (g_date_get_julian)
C:/MinGW/msys/1.0/dev/lib/libglib-2.0.dll.a(d000220.o)
                              mrp-time.o (g_date_set_day)
C:/MinGW/msys/1.0/dev/lib/libglib-2.0.dll.a(d000223.o)
                              mrp-time.o (g_date_set_month)
C:/MinGW/msys/1.0/dev/lib/libglib-2.0.dll.a(d000198.o)
                              mrp-time.o (g_date_compare)
C:/MinGW/msys/1.0/dev/lib/libglib-2.0.dll.a(d001410.o)
                              mrp-paths-win32.o (g_win32_get_package_installation_directory_of_module)
C:/MinGW/msys/1.0/dev/lib/libglib-2.0.dll.a(d000000.o)
                              C:/MinGW/msys/1.0/dev/lib/libglib-2.0.dll.a(d000832.o) (_head_libglib_2_0_0_dll)
C:/MinGW/msys/1.0/dev/lib/libglib-2.0.dll.a(d001426.o)
                              C:/MinGW/msys/1.0/dev/lib/libglib-2.0.dll.a(d000000.o) (libglib_2_0_0_dll_iname)
C:/MinGW/msys/1.0/dev/lib/libintl.dll.a(d000011.o)
                              mrp-application.o (libintl_bindtextdomain)
C:/MinGW/msys/1.0/dev/lib/libintl.dll.a(d000010.o)
                              mrp-application.o (libintl_bind_textdomain_codeset)
C:/MinGW/msys/1.0/dev/lib/libintl.dll.a(d000017.o)
                              mrp-day.o (libintl_gettext)
C:/MinGW/msys/1.0/dev/lib/libintl.dll.a(d000019.o)
                              mrp-group.o (libintl_printf)
C:/MinGW/msys/1.0/dev/lib/libintl.dll.a(d000022.o)
                              mrp-time.o (libintl_snprintf)
C:/MinGW/msys/1.0/dev/lib/libintl.dll.a(d000000.o)
                              C:/MinGW/msys/1.0/dev/lib/libintl.dll.a(d000011.o) (_head_intl_dll)
C:/MinGW/msys/1.0/dev/lib/libintl.dll.a(d000031.o)
                              C:/MinGW/msys/1.0/dev/lib/libintl.dll.a(d000000.o) (intl_dll_iname)
c:/mingw/bin/../lib/gcc/mingw32/4.5.0/../../../libmingw32.a(tlssup.o)
                              c:/mingw/bin/../lib/gcc/mingw32/4.5.0/../../../dllcrt2.o (__dyn_tls_init_callback)
c:/mingw/bin/../lib/gcc/mingw32/4.5.0/../../../libmingw32.a(pseudo-reloc.o)
                              c:/mingw/bin/../lib/gcc/mingw32/4.5.0/../../../dllcrt2.o (_pei386_runtime_relocator)
c:/mingw/bin/../lib/gcc/mingw32/4.5.0/../../../libmingw32.a(gccmain.o)
                              c:/mingw/bin/../lib/gcc/mingw32/4.5.0/../../../dllcrt2.o (__main)
c:/mingw/bin/../lib/gcc/mingw32/4.5.0/../../../libmingw32.a(dllmain.o)
                              c:/mingw/bin/../lib/gcc/mingw32/4.5.0/../../../dllcrt2.o (DllMain@12)
c:/mingw/bin/../lib/gcc/mingw32/4.5.0/../../../libmingw32.a(crtst.o)
                              c:/mingw/bin/../lib/gcc/mingw32/4.5.0/../../../libmingw32.a(tlssup.o) (_CRT_MT)
c:/mingw/bin/../lib/gcc/mingw32/4.5.0/../../../libmingw32.a(tlsthrd.o)
                              c:/mingw/bin/../lib/gcc/mingw32/4.5.0/../../../libmingw32.a(tlssup.o) (__mingw_TLScallback)
c:/mingw/bin/../lib/gcc/mingw32/4.5.0/../../../libmingw32.a(pseudo-reloc-list.o)
                              c:/mingw/bin/../lib/gcc/mingw32/4.5.0/../../../libmingw32.a(pseudo-reloc.o) (__RUNTIME_PSEUDO_RELOC_LIST_END__)
c:/mingw/bin/../lib/gcc/mingw32/4.5.0/libgcc.a(_chkstk.o)
                              mrp-task-manager.o (__chkstk)
c:/mingw/bin/../lib/gcc/mingw32/4.5.0/libgcc.a(_divdi3.o)
                              mrp-time.o (__divdi3)
c:/mingw/bin/../lib/gcc/mingw32/4.5.0/libgcc.a(_moddi3.o)
                              mrp-time.o (__moddi3)
c:/mingw/bin/../lib/gcc/mingw32/4.5.0/libgcc.a(_ctors.o)
                              c:/mingw/bin/../lib/gcc/mingw32/4.5.0/../../../libmingw32.a(gccmain.o) (__CTOR_LIST__)
c:/mingw/bin/../lib/gcc/mingw32/4.5.0/../../../libmoldname.a(dgzls00062.o)
                              mrp-time.o (putenv)
c:/mingw/bin/../lib/gcc/mingw32/4.5.0/../../../libmoldname.a(dgzlh.o)
                              c:/mingw/bin/../lib/gcc/mingw32/4.5.0/../../../libmoldname.a(dgzls00062.o) (_head_libmoldname_a)
c:/mingw/bin/../lib/gcc/mingw32/4.5.0/../../../libmoldname.a(dgzlt.o)
                              c:/mingw/bin/../lib/gcc/mingw32/4.5.0/../../../libmoldname.a(dgzlh.o) (_libmoldname_a_iname)
c:/mingw/bin/../lib/gcc/mingw32/4.5.0/../../../libmsvcrt.a(duyms00052.o)
                              c:/mingw/bin/../lib/gcc/mingw32/4.5.0/../../../dllcrt2.o (__dllonexit)
c:/mingw/bin/../lib/gcc/mingw32/4.5.0/../../../libmsvcrt.a(duyms00625.o)
                              c:/mingw/bin/../lib/gcc/mingw32/4.5.0/../../../dllcrt2.o (free)
c:/mingw/bin/../lib/gcc/mingw32/4.5.0/../../../libmsvcrt.a(duyms00610.o)
                              c:/mingw/bin/../lib/gcc/mingw32/4.5.0/../../../dllcrt2.o (fflush)
c:/mingw/bin/../lib/gcc/mingw32/4.5.0/../../../libmsvcrt.a(duyms00676.o)
                              c:/mingw/bin/../lib/gcc/mingw32/4.5.0/../../../dllcrt2.o (malloc)
c:/mingw/bin/../lib/gcc/mingw32/4.5.0/../../../libmsvcrt.a(duyms00182.o)
                              c:/mingw/bin/../lib/gcc/mingw32/4.5.0/../../../dllcrt2.o (_errno)
c:/mingw/bin/../lib/gcc/mingw32/4.5.0/../../../libmsvcrt.a(duyms00715.o)
                              mrp-qualification.o (strcmp)
c:/mingw/bin/../lib/gcc/mingw32/4.5.0/../../../libmsvcrt.a(duyms00682.o)
                              mrp-calendar.o (memcpy)
c:/mingw/bin/../lib/gcc/mingw32/4.5.0/../../../libmsvcrt.a(duyms00684.o)
                              mrp-object.o (memset)
c:/mingw/bin/../lib/gcc/mingw32/4.5.0/../../../libmsvcrt.a(duyms00723.o)
                              mrp-project.o (strncmp)
c:/mingw/bin/../lib/gcc/mingw32/4.5.0/../../../libmsvcrt.a(duyms00728.o)
                              mrp-project.o (strstr)
c:/mingw/bin/../lib/gcc/mingw32/4.5.0/../../../libmsvcrt.a(duyms00616.o)
                              mrp-task-manager.o (floor)
c:/mingw/bin/../lib/gcc/mingw32/4.5.0/../../../libmsvcrt.a(duyms00685.o)
                              mrp-time.o (mktime)
c:/mingw/bin/../lib/gcc/mingw32/4.5.0/../../../libmsvcrt.a(duyms00739.o)
                              mrp-time.o (time)
c:/mingw/bin/../lib/gcc/mingw32/4.5.0/../../../libmsvcrt.a(duyms00672.o)
                              mrp-time.o (localtime)
c:/mingw/bin/../lib/gcc/mingw32/4.5.0/../../../libmsvcrt.a(duyms00641.o)
                              mrp-time.o (gmtime)
c:/mingw/bin/../lib/gcc/mingw32/4.5.0/../../../libmsvcrt.a(duyms00721.o)
                              mrp-time.o (strlen)
c:/mingw/bin/../lib/gcc/mingw32/4.5.0/../../../libmsvcrt.a(duyms00712.o)
                              mrp-time.o (sscanf)
c:/mingw/bin/../lib/gcc/mingw32/4.5.0/../../../libmsvcrt.a(duyms00717.o)
                              mrp-time.o (strcpy)
c:/mingw/bin/../lib/gcc/mingw32/4.5.0/../../../libmsvcrt.a(duyms00720.o)
                              mrp-time.o (strftime)
c:/mingw/bin/../lib/gcc/mingw32/4.5.0/../../../libmsvcrt.a(duyms00538.o)
                              c:/mingw/bin/../lib/gcc/mingw32/4.5.0/../../../libmingw32.a(tlssup.o) (_imp___winmajor)
c:/mingw/bin/../lib/gcc/mingw32/4.5.0/../../../libmsvcrt.a(duyms00266.o)
                              c:/mingw/bin/../lib/gcc/mingw32/4.5.0/../../../libmingw32.a(pseudo-reloc.o) (_imp___iob)
c:/mingw/bin/../lib/gcc/mingw32/4.5.0/../../../libmsvcrt.a(duyms00633.o)
                              c:/mingw/bin/../lib/gcc/mingw32/4.5.0/../../../libmingw32.a(pseudo-reloc.o) (fwrite)
c:/mingw/bin/../lib/gcc/mingw32/4.5.0/../../../libmsvcrt.a(duyms00748.o)
                              c:/mingw/bin/../lib/gcc/mingw32/4.5.0/../../../libmingw32.a(pseudo-reloc.o) (vfprintf)
c:/mingw/bin/../lib/gcc/mingw32/4.5.0/../../../libmsvcrt.a(duyms00583.o)
                              c:/mingw/bin/../lib/gcc/mingw32/4.5.0/../../../libmingw32.a(pseudo-reloc.o) (abort)
c:/mingw/bin/../lib/gcc/mingw32/4.5.0/../../../libmsvcrt.a(duyms00595.o)
                              c:/mingw/bin/../lib/gcc/mingw32/4.5.0/../../../libmingw32.a(tlsthrd.o) (calloc)
c:/mingw/bin/../lib/gcc/mingw32/4.5.0/../../../libmsvcrt.a(duymh.o)
                              c:/mingw/bin/../lib/gcc/mingw32/4.5.0/../../../libmsvcrt.a(duyms00052.o) (_head_libmsvcrt_a)
c:/mingw/bin/../lib/gcc/mingw32/4.5.0/../../../libmsvcrt.a(duymt.o)
                              c:/mingw/bin/../lib/gcc/mingw32/4.5.0/../../../libmsvcrt.a(duymh.o) (_libmsvcrt_a_iname)
c:/mingw/bin/../lib/gcc/mingw32/4.5.0/../../../libkernel32.a(dkjes00337.o)
                              c:/mingw/bin/../lib/gcc/mingw32/4.5.0/crtbegin.o (GetModuleHandleA@4)
c:/mingw/bin/../lib/gcc/mingw32/4.5.0/../../../libkernel32.a(dkjes00364.o)
                              c:/mingw/bin/../lib/gcc/mingw32/4.5.0/crtbegin.o (GetProcAddress@8)
c:/mingw/bin/../lib/gcc/mingw32/4.5.0/../../../libkernel32.a(dkjes00327.o)
                              mrp-time.o (GetLocaleInfoA@16)
c:/mingw/bin/../lib/gcc/mingw32/4.5.0/../../../libkernel32.a(dkjes00524.o)
                              c:/mingw/bin/../lib/gcc/mingw32/4.5.0/../../../libmingw32.a(tlssup.o) (LoadLibraryA@4)
c:/mingw/bin/../lib/gcc/mingw32/4.5.0/../../../libkernel32.a(dkjes00214.o)
                              c:/mingw/bin/../lib/gcc/mingw32/4.5.0/../../../libmingw32.a(tlssup.o) (FreeLibrary@4)
c:/mingw/bin/../lib/gcc/mingw32/4.5.0/../../../libkernel32.a(dkjes00801.o)
                              c:/mingw/bin/../lib/gcc/mingw32/4.5.0/../../../libmingw32.a(pseudo-reloc.o) (VirtualQuery@12)
c:/mingw/bin/../lib/gcc/mingw32/4.5.0/../../../libkernel32.a(dkjes00798.o)
                              c:/mingw/bin/../lib/gcc/mingw32/4.5.0/../../../libmingw32.a(pseudo-reloc.o) (VirtualProtect@16)
c:/mingw/bin/../lib/gcc/mingw32/4.5.0/../../../libkernel32.a(dkjes00765.o)
                              c:/mingw/bin/../lib/gcc/mingw32/4.5.0/../../../libmingw32.a(tlsthrd.o) (TlsGetValue@4)
c:/mingw/bin/../lib/gcc/mingw32/4.5.0/../../../libkernel32.a(dkjes00325.o)
                              c:/mingw/bin/../lib/gcc/mingw32/4.5.0/../../../libmingw32.a(tlsthrd.o) (GetLastError@0)
c:/mingw/bin/../lib/gcc/mingw32/4.5.0/../../../libkernel32.a(dkjes00107.o)
                              c:/mingw/bin/../lib/gcc/mingw32/4.5.0/../../../libmingw32.a(tlsthrd.o) (DeleteCriticalSection@4)
c:/mingw/bin/../lib/gcc/mingw32/4.5.0/../../../libkernel32.a(dkjes00492.o)
                              c:/mingw/bin/../lib/gcc/mingw32/4.5.0/../../../libmingw32.a(tlsthrd.o) (InitializeCriticalSection@4)
c:/mingw/bin/../lib/gcc/mingw32/4.5.0/../../../libkernel32.a(dkjes00126.o)
                              c:/mingw/bin/../lib/gcc/mingw32/4.5.0/../../../libmingw32.a(tlsthrd.o) (EnterCriticalSection@4)
c:/mingw/bin/../lib/gcc/mingw32/4.5.0/../../../libkernel32.a(dkjes00523.o)
                              c:/mingw/bin/../lib/gcc/mingw32/4.5.0/../../../libmingw32.a(tlsthrd.o) (LeaveCriticalSection@4)
c:/mingw/bin/../lib/gcc/mingw32/4.5.0/../../../libkernel32.a(dkjeh.o)
                              c:/mingw/bin/../lib/gcc/mingw32/4.5.0/../../../libkernel32.a(dkjes00337.o) (_head_libkernel32_a)
c:/mingw/bin/../lib/gcc/mingw32/4.5.0/../../../libkernel32.a(dkjet.o)
                              c:/mingw/bin/../lib/gcc/mingw32/4.5.0/../../../libkernel32.a(dkjeh.o) (_libkernel32_a_iname)

分配公共符号
公共符号            大小              文件

__DTOR_LIST__       0x8               c:/mingw/bin/../lib/gcc/mingw32/4.5.0/libgcc.a(_ctors.o)
__mingw_gMTKeyDtor  0x10              c:/mingw/bin/../lib/gcc/mingw32/4.5.0/../../../libmingw32.a(tlssup.o)
__CTOR_LIST__       0x8               c:/mingw/bin/../lib/gcc/mingw32/4.5.0/libgcc.a(_ctors.o)
__mingw_gMTRemoveKeyDtor
                    0x10              c:/mingw/bin/../lib/gcc/mingw32/4.5.0/../../../libmingw32.a(tlssup.o)
__mingw_usemthread_dll
                    0x10              c:/mingw/bin/../lib/gcc/mingw32/4.5.0/../../../libmingw32.a(tlssup.o)

Discarded input sections

 .drectve       0x00000000       0x38 c:/mingw/bin/../lib/gcc/mingw32/4.5.0/libgcc.a(_ctors.o)

内存配置

名称           来源             长度             属性
*default*        0x00000000         0xffffffff

Linker script and memory map

                0x6a640000                __image_base__ = 0x6a640000
                0x00000000                __dll__ = 0x0
                0x6a640000                ___ImageBase = 0x6a640000
                0x00001000                __section_alignment__ = 0x1000
                0x00000200                __file_alignment__ = 0x200
                0x00000004                __major_os_version__ = 0x4
                0x00000000                __minor_os_version__ = 0x0
                0x00000001                __major_image_version__ = 0x1
                0x00000000                __minor_image_version__ = 0x0
                0x00000004                __major_subsystem_version__ = 0x4
                0x00000000                __minor_subsystem_version__ = 0x0
                0x00000003                __subsystem__ = 0x3
                0x00200000                __size_of_stack_reserve__ = 0x200000
                0x00001000                __size_of_stack_commit__ = 0x1000
                0x00100000                __size_of_heap_reserve__ = 0x100000
                0x00001000                __size_of_heap_commit__ = 0x1000
                0x00000000                __loader_flags__ = 0x0
                0x00000000                __dll_characteristics__ = 0x0
LOAD c:/mingw/bin/../lib/gcc/mingw32/4.5.0/../../../dllcrt2.o
LOAD c:/mingw/bin/../lib/gcc/mingw32/4.5.0/crtbegin.o
LOAD mrp-marshal.o
LOAD mrp-application.o
LOAD mrp-assignment.o
LOAD mrp-group-assignment.o
LOAD mrp-qualification.o
LOAD mrp-calendar.o
LOAD mrp-day.o
LOAD mrp-group.o
LOAD mrp-object.o
LOAD mrp-file-module.o
LOAD mrp-project.o
LOAD mrp-resource.o
LOAD mrp-storage-module.o
LOAD mrp-storage-module-factory.o
LOAD mrp-task-manager.o
LOAD mrp-task.o
LOAD mrp-relation.o
LOAD mrp-types.o
LOAD mrp-property.o
LOAD mrp-time.o
LOAD mrp-error.o
LOAD mrp-paths-win32.o
LOAD C:/MinGW/msys/1.0/dev/lib/libgtk-win32-2.0.dll.a
LOAD C:/MinGW/msys/1.0/dev/lib/libgdk-win32-2.0.dll.a
LOAD C:/MinGW/msys/1.0/dev/lib/libatk-1.0.dll.a
LOAD C:/MinGW/msys/1.0/dev/lib/libgio-2.0.dll.a
LOAD C:/MinGW/msys/1.0/dev/lib/libpangowin32-1.0.dll.a
LOAD c:/mingw/bin/../lib/gcc/mingw32/4.5.0/../../../libgdi32.a
LOAD C:/MinGW/msys/1.0/dev/lib/libpangocairo-1.0.dll.a
LOAD C:/MinGW/msys/1.0/dev/lib/libgdk_pixbuf-2.0.dll.a
LOAD C:/MinGW/msys/1.0/dev/lib/libpng14.dll.a
LOAD C:/MinGW/msys/1.0/dev/lib/libpango-1.0.dll.a
LOAD C:/MinGW/msys/1.0/dev/lib/libcairo.dll.a
LOAD C:/MinGW/msys/1.0/dev/lib/libgobject-2.0.dll.a
LOAD C:/MinGW/msys/1.0/dev/lib/libgmodule-2.0.dll.a
LOAD C:/MinGW/msys/1.0/dev/lib/libgthread-2.0.dll.a
LOAD C:/MinGW/msys/1.0/dev/lib/libglib-2.0.dll.a
LOAD C:/MinGW/msys/1.0/dev/lib/libintl.dll.a
LOAD c:/mingw/bin/../lib/gcc/mingw32/4.5.0/../../../libmingw32.a
LOAD c:/mingw/bin/../lib/gcc/mingw32/4.5.0/libgcc_eh.a
LOAD c:/mingw/bin/../lib/gcc/mingw32/4.5.0/libgcc.a
LOAD c:/mingw/bin/../lib/gcc/mingw32/4.5.0/../../../libmoldname.a
LOAD c:/mingw/bin/../lib/gcc/mingw32/4.5.0/../../../libmingwex.a
LOAD c:/mingw/bin/../lib/gcc/mingw32/4.5.0/../../../libmsvcrt.a
LOAD c:/mingw/bin/../lib/gcc/mingw32/4.5.0/../../../libuser32.a
LOAD c:/mingw/bin/../lib/gcc/mingw32/4.5.0/../../../libkernel32.a
LOAD c:/mingw/bin/../lib/gcc/mingw32/4.5.0/../../../libadvapi32.a
LOAD c:/mingw/bin/../lib/gcc/mingw32/4.5.0/../../../libshell32.a
LOAD c:/mingw/bin/../lib/gcc/mingw32/4.5.0/../../../libmingw32.a
LOAD c:/mingw/bin/../lib/gcc/mingw32/4.5.0/libgcc_eh.a
LOAD c:/mingw/bin/../lib/gcc/mingw32/4.5.0/libgcc.a
LOAD c:/mingw/bin/../lib/gcc/mingw32/4.5.0/../../../libmoldname.a
LOAD c:/mingw/bin/../lib/gcc/mingw32/4.5.0/../../../libmingwex.a
LOAD c:/mingw/bin/../lib/gcc/mingw32/4.5.0/../../../libmsvcrt.a
LOAD c:/mingw/bin/../lib/gcc/mingw32/4.5.0/crtend.o
                0x00000308                . = SIZEOF_HEADERS
                0x00001000                . = ALIGN (__section_alignment__)

.text           0x6a641000    0x1e800
 *(.init)
 *(.text)
 .text          0x6a641000      0x1b0 c:/mingw/bin/../lib/gcc/mingw32/4.5.0/../../../dllcrt2.o
                0x6a641000                _onexit
                0x6a641030                atexit
                0x6a6410c0                DllMainCRTStartup@12
 .text          0x6a6411b0       0xd0 c:/mingw/bin/../lib/gcc/mingw32/4.5.0/crtbegin.o
                0x6a6411b0                __gcc_register_frame
                0x6a64123c                __gcc_deregister_frame
 .text          0x6a641280      0x2a8 mrp-marshal.o
                0x6a641280                mrp_marshal_VOID__OBJECT_OBJECT_OBJECT_BOOLEAN
                0x6a64133f                mrp_marshal_VOID__POINTER_POINTER
                0x6a6413e2                mrp_marshal_VOID__OBJECT_INT
                0x6a641485                mrp_marshal_VOID__LONG_POINTER
 .text          0x6a641528      0x634 mrp-application.o
                0x6a641528                mrp_application_get_type
                0x6a6417d9                imrp_application_register_reader
                0x6a64189e                imrp_application_register_writer
                0x6a641965                imrp_application_get_all_file_readers
                0x6a6419f5                imrp_application_get_all_file_writers
                0x6a641a86                mrp_application_new
                0x6a641aa3                mrp_application_get_unique_id
                0x6a641ab8                imrp_application_id_set_data
                0x6a641b24                mrp_application_id_get_data
                0x6a641b40                imrp_application_id_remove_data
 .text          0x6a641b5c      0x630 mrp-assignment.o
                0x6a641b5c                mrp_assignment_get_type
                0x6a641fc6                mrp_assignment_new
                0x6a641fe9                mrp_assignment_get_task
                0x6a642073                mrp_assignment_get_resource
                0x6a6420fe                mrp_assignment_get_units
 .text          0x6a64218c      0x630 mrp-group-assignment.o
                0x6a64218c                mrp_group_assignment_get_type
                0x6a6425f6                mrp_group_assignment_new
                0x6a642619                mrp_group_assignment_get_task
                0x6a6426a3                mrp_group_assignment_get_group
                0x6a64272e                mrp_group_assignment_get_units
 .text          0x6a6427bc      0x928 mrp-qualification.o
                0x6a6427bc                mrp_qualification_get_type
                0x6a642d4f                mrp_qualification_new
                0x6a642d72                mrp_qualification_get_project
                0x6a642dfc                mrp_qualification_get_name
                0x6a642e87                mrp_qualification_get_note
                0x6a642f12                mrp_qualification_set_name
                0x6a642fce                mrp_qualification_set_id
                0x6a643057                mrp_qualification_get_id
 .text          0x6a6430e4     0x1f34 mrp-calendar.o
                0x6a6430e4                mrp_calendar_get_type
                0x6a643827                mrp_calendar_new
                0x6a6438f9                mrp_calendar_add
                0x6a64393b                mrp_calendar_copy
                0x6a6439fe                mrp_calendar_derive
                0x6a643ae9                mrp_calendar_reparent
                0x6a643c1a                mrp_calendar_remove
                0x6a643e9e                mrp_calendar_get_name
                0x6a643f29                mrp_calendar_set_name
                0x6a643ff6                mrp_calendar_day_set_intervals
                0x6a644125                mrp_calendar_day_get_intervals
                0x6a64420c                mrp_calendar_day_get_total_work
                0x6a644304                mrp_calendar_get_default_day
                0x6a644399                mrp_calendar_set_default_days
                0x6a6444ab                mrp_calendar_set_days
                0x6a644606                mrp_calendar_get_parent
                0x6a644691                mrp_calendar_get_children
                0x6a64471c                mrp_calendar_get_day
                0x6a6447ee                mrp_interval_new
                0x6a64482b                mrp_interval_copy
                0x6a64489a                mrp_interval_ref
                0x6a6448dd                mrp_interval_unref
                0x6a64492f                mrp_interval_get_absolute
                0x6a644988                mrp_interval_set_absolute
                0x6a644a18                mrp_calendar_get_overridden_days
                0x6a644b14                mrp_calendar_get_all_overridden_dates
                0x6a644bf4                imrp_calendar_replace_day
                0x6a644fdf                mrp_interval_get_type
 .text          0x6a645018      0x458 mrp-day.o
                0x6a645047                imrp_day_setup_defaults
                0x6a645114                mrp_day_add
                0x6a6451ca                mrp_day_get_all
                0x6a6451dd                mrp_day_remove
                0x6a6451f7                mrp_day_get_id
                0x6a64522e                mrp_day_get_name
                0x6a645265                mrp_day_set_name
                0x6a6452d9                mrp_day_get_description
                0x6a645310                mrp_day_set_description
                0x6a645384                mrp_day_ref
                0x6a6453c7                mrp_day_unref
                0x6a645419                mrp_day_get_work
                0x6a645423                mrp_day_get_nonwork
                0x6a64542d                mrp_day_get_use_base
                0x6a645437                mrp_day_get_type
 .text          0x6a645470      0xf38 mrp-group.o
                0x6a645470                mrp_group_get_type
                0x6a645bbf                mrp_group_new
                0x6a645bf2                mrp_group_get_name
                0x6a645c7c                mrp_group_set_name
                0x6a645ed4                imrp_group_add_assignment
                0x6a6460c3                mrp_group_assign
                0x6a64622e                mrp_group_get_assignments
 .text          0x6a6463a8     0x1798 mrp-object.o
                0x6a6463a8                mrp_object_get_type
                0x6a6465ec                mrp_object_set_property
                0x6a646718                mrp_object_get_property
                0x6a646c13                mrp_object_removed
                0x6a646cac                mrp_object_changed
                0x6a646d52                mrp_object_set
                0x6a646e68                mrp_object_get
                0x6a646f1b                mrp_object_set_valist
                0x6a647515                mrp_object_get_valist
                0x6a6478c3                mrp_object_get_properties
                0x6a647966                mrp_object_get_id
                0x6a6479f7                mrp_object_set_id
                0x6a647aaf                mrp_object_get_project
 .text          0x6a647b40      0x3f4 mrp-file-module.o
                0x6a647bc1                mrp_file_module_load_all
                0x6a647cc7                mrp_file_module_new
                0x6a647ce3                mrp_file_module_init
                0x6a647db3                mrp_file_reader_read_string
                0x6a647e22                mrp_file_writer_get_string
                0x6a647e74                mrp_file_writer_get_mime_type
                0x6a647ec6                mrp_file_writer_write
 .text          0x6a647f34     0x4dcc mrp-project.o
                0x6a647f34                mrp_project_get_type
                0x6a648ee0                mrp_project_new
                0x6a648f4f                mrp_project_load
                0x6a6491ee                project_do_save
                0x6a6492a8                mrp_project_save
                0x6a6493ff                mrp_project_save_as
                0x6a649620                mrp_project_export
                0x6a6497fd                mrp_project_load_from_xml
                0x6a6499f6                mrp_project_save_to_xml
                0x6a649cb9                mrp_project_close
                0x6a649cbe                imrp_project_get_task_manager
                0x6a649d49                mrp_project_get_resource_by_name
                0x6a649e72                mrp_project_get_resources
                0x6a649efd                imrp_project_set_resources
                0x6a649fa7                mrp_project_add_resource
                0x6a64a1ba                mrp_project_remove_resource
                0x6a64a327                mrp_project_get_group_by_name
                0x6a64a450                mrp_project_get_groups
                0x6a64a4db                imrp_project_set_groups
                0x6a64a585                mrp_project_add_group
                0x6a64a71f                mrp_project_remove_group
                0x6a64a8b0                mrp_project_get_qualifications
                0x6a64a93b                imrp_project_set_qualifications
                0x6a64a9e5                mrp_project_add_qualification
                0x6a64abb1                mrp_project_remove_qualification
                0x6a64ad1e                mrp_project_is_empty
                0x6a64ad2c                mrp_project_needs_saving
                0x6a64ad3a                mrp_project_get_uri
                0x6a64adc5                mrp_project_set_uri
                0x6a64ae6c                mrp_project_get_project_start
                0x6a64aef7                mrp_project_set_project_start
                0x6a64af80                imrp_project_add_calendar_day
                0x6a64b108                mrp_project_get_calendar_day_by_id
                0x6a64b1cf                imrp_project_get_calendar_days
                0x6a64b2e4                imrp_project_remove_calendar_day
                0x6a64b400                imrp_project_signal_calendar_tree_changed
                0x6a64b440                imrp_project_set_needs_saving
                0x6a64b55b                mrp_project_get_task_by_name
                0x6a64b5d2                mrp_project_get_all_tasks
                0x6a64b665                mrp_project_insert_task
                0x6a64b73b                mrp_project_remove_task
                0x6a64b822                mrp_project_move_task
                0x6a64ba5d                imrp_project_task_moved
                0x6a64ba9b                mrp_project_get_root_task
                0x6a64bb2e                mrp_project_task_traverse
                0x6a64bbd1                mrp_project_reschedule
                0x6a64bc67                mrp_project_calculate_summary_duration
                0x6a64bdea                mrp_project_calculate_task_work
                0x6a64bf6d                imrp_project_task_inserted
                0x6a64c020                mrp_project_get_property
                0x6a64c11e                imrp_project_property_changed
                0x6a64c1f7                mrp_project_get_properties_from_type
                0x6a64c29d                mrp_project_add_property
                0x6a64c451                mrp_project_remove_property
                0x6a64c597                mrp_project_has_property
                0x6a64c679                mrp_project_get_root_calendar
                0x6a64c70a                mrp_project_get_calendar
                0x6a64c9e7                mrp_project_set_block_scheduling
                0x6a64ca82                mrp_project_get_block_scheduling
                0x6a64cb1b                renewProject
                0x6a64cc6e                mrp_project_get_app
 .text          0x6a64cd00     0x215c mrp-resource.o
                0x6a64cd00                mrp_resource_get_type
                0x6a64e2ba                imrp_resource_add_assignment
                0x6a64e468                mrp_resource_new
                0x6a64e48b                mrp_resource_get_name
                0x6a64e515                mrp_resource_get_hasit
                0x6a64e5a0                mrp_resource_get_hasc
                0x6a64e62b                mrp_resource_set_hasit
                0x6a64e6db                mrp_resource_set_hasc
                0x6a64e78b                mrp_resource_get_note
                0x6a64e816                mrp_resource_set_name
                0x6a64e8c6                mrp_resource_get_short_name
                0x6a64e951                mrp_resource_set_short_name
                0x6a64ea01                mrp_resource_assign
                0x6a64eb6c                mrp_resource_get_assignments
                0x6a64ebf7                mrp_resource_get_assigned_tasks
                0x6a64ece1                mrp_resource_compare
                0x6a64ed2c                mrp_resource_get_calendar
                0x6a64edbd                mrp_resource_set_calendar
 .text          0x6a64ee5c      0x4e4 mrp-storage-module.o
                0x6a64ee5c                mrp_storage_module_get_type
                0x6a64eec8                mrp_storage_module_load
                0x6a64efa8                mrp_storage_module_save
                0x6a64f08f                mrp_storage_module_to_xml
                0x6a64f144                mrp_storage_module_from_xml
                0x6a64f224                imrp_storage_module_set_project
 .text          0x6a64f340      0x360 mrp-storage-module-factory.o
                0x6a64f340                mrp_storage_module_factory_get_type
                0x6a64f55e                mrp_storage_module_factory_get
                0x6a64f689                mrp_storage_module_factory_create_module
 .text          0x6a64f6a0     0x5468 mrp-task-manager.o
                0x6a64f70e                mrp_task_manager_get_type
                0x6a64f9d3                mrp_task_manager_new
                0x6a64fb3f                mrp_task_manager_insert_task
                0x6a64fd65                mrp_task_manager_remove_task
                0x6a64ff0a                mrp_task_manager_get_all_tasks
                0x6a650021                mrp_task_manager_traverse
                0x6a650164                mrp_task_manager_set_root
                0x6a65033a                mrp_task_manager_get_root
                0x6a6503c5                mrp_task_manager_move_task
                0x6a650a5b                mrp_task_manager_dump_task_tree
                0x6a650b1e                mrp_task_manager_dump_task_list
                0x6a6513a2                task_manager_build_dependency_graph_for_node
                0x6a652eba                mrp_task_manager_set_block_scheduling
                0x6a652f72                mrp_task_manager_get_block_scheduling
                0x6a652ffd                mrp_task_manager_rebuild
                0x6a6530de                mrp_task_manager_recalc
                0x6a65363b                mrp_task_manager_check_predecessor
                0x6a65389b                mrp_task_manager_check_move
                0x6a653d64                mrp_task_manager_calculate_task_work
                0x6a653e23                mrp_task_manager_calculate_summary_duration
                0x6a653f72                isOccupiedTimeTasks
                0x6a65401f                findOccupiedTimeTasks
                0x6a6540aa                findMostOccupiedTask
                0x6a654197                isNotOccupiedTask
                0x6a65422a                theTaskResourceNumber
                0x6a654258                findMinResource
                0x6a654357                resourceNotEnough
                0x6a6543ab                sortTasklistsFunction
                0x6a654422                sortTasklistsByStartTime
                0x6a65444b                sortTasklistsFunctionByFinish
                0x6a654528                sortTasklistsByFinishTime
                0x6a654551                totalduration
                0x6a6545e4                getCriticalTasks
                0x6a65465c                findAllAssignmentRresource
                0x6a65475c                findNotAssignmentRresource
                0x6a654805                durationOptimize
 .text          0x6a654b08     0x5668 mrp-task.o
                0x6a654b08                mrp_task_get_type
                0x6a656476                task_remove_assignments
                0x6a65678d                imrp_task_remove_subtree
                0x6a6568b3                imrp_task_detach
                0x6a656941                imrp_task_reattach
                0x6a656c15                imrp_task_reattach_pos
                0x6a656d5a                mrp_task_new
                0x6a656d7d                mrp_task_get_name
                0x6a656e08                mrp_task_get_note
                0x6a656e93                mrp_task_set_name
                0x6a656f69                imrp_task_insert_child
                0x6a6571b0                mrp_task_has_relation_to
                0x6a6571f0                mrp_task_has_relation
                0x6a65721b                mrp_task_add_predecessor
                0x6a657645                mrp_task_remove_predecessor
                0x6a657841                mrp_task_get_relation
                0x6a657976                mrp_task_get_predecessor_relation
                0x6a657a86                mrp_task_get_successor_relation
                0x6a657b9c                mrp_task_get_predecessor_relations
                0x6a657c27                mrp_task_get_successor_relations
                0x6a657cb2                mrp_task_get_parent
                0x6a657d57                mrp_task_get_first_child
                0x6a657e10                mrp_task_get_next_sibling
                0x6a657ec9                mrp_task_get_prev_sibling
                0x6a657f82                mrp_task_get_n_children
                0x6a658015                mrp_task_get_nth_child
                0x6a6580c6                mrp_task_get_position
                0x6a6581a4                imrp_task_add_assignment
                0x6a65833d                imrp_task_add_group_assignment
                0x6a6584af                mrp_task_get_start
                0x6a65853a                mrp_task_get_finish
                0x6a6585c5                mrp_task_get_work_start
                0x6a658650                mrp_task_get_latest_start
                0x6a65865e                mrp_task_get_latest_finish
                0x6a65866c                mrp_task_get_duration
                0x6a6586f7                mrp_task_get_work
                0x6a658782                mrp_task_get_priority
                0x6a65880d                mrp_task_get_unit_ivals
                0x6a658898                mrp_task_set_unit_ivals
                0x6a65897e                mrp_task_get_assignments
                0x6a658a09                mrp_task_get_nres
                0x6a658a43                mrp_task_get_assignment
                0x6a658b83                mrp_task_get_group_assignment
                0x6a658cc3                mrp_task_get_assigned_resources
                0x6a658da7                mrp_task_compare
                0x6a658df4                mrp_task_reset_constraint
                0x6a658eb0                mrp_task_get_cost
                0x6a659047                mrp_task_invalidate_cost
                0x6a659135                mrp_constraint_get_type
                0x6a65916d                imrp_task_set_visited
                0x6a659205                imrp_task_get_visited
                0x6a659297                imrp_task_set_start
                0x6a659320                imrp_task_set_work_start
                0x6a6593a9                imrp_task_set_finish
                0x6a659432                imrp_task_set_duration
                0x6a6594bb                imrp_task_set_work
                0x6a659544                mrp_task_set_probability
                0x6a6595cd                imrp_task_set_latest_start
                0x6a6595de                imrp_task_set_latest_finish
                0x6a6595ef                imrp_task_get_constraint
                0x6a65968c                imrp_task_set_constraint
                0x6a65971b                mrp_task_set_task_type
                0x6a6597a4                mrp_task_set_task_virtual_type
                0x6a65982d                imrp_task_get_depth
                0x6a6598c0                imrp_task_get_node
                0x6a65994b                imrp_task_get_graph_node
                0x6a6599d6                imrp_task_peek_predecessors
                0x6a659a61                imrp_task_peek_successors
                0x6a659aec                mrp_task_get_task_type
                0x6a659b77                mrp_task_get_task_virtual_type
                0x6a659c02                mrp_task_get_sched
                0x6a659c8d                mrp_task_get_percent_complete
                0x6a659d18                mrp_task_get_critical
                0x6a659da8                mrp_task_get_probability
                0x6a659e33                mrp_task_set_id
                0x6a659ebc                mrp_task_get_id
                0x6a659f47                imrp_task_set_needit
                0x6a659fd0                imrp_task_get_needit
                0x6a65a05b                imrp_task_set_needc
                0x6a65a0e4                imrp_task_get_needc
 .text          0x6a65a170      0x74c mrp-relation.o
                0x6a65a170                mrp_relation_get_type
                0x6a65a691                mrp_relation_get_predecessor
                0x6a65a71c                mrp_relation_get_successor
                0x6a65a7a6                mrp_relation_get_lag
                0x6a65a831                mrp_relation_get_relation_type
 .text          0x6a65a8bc      0x188 mrp-types.o
                0x6a65a8bc                mrp_relation_type_get_type
                0x6a65a8eb                mrp_task_type_get_type
                0x6a65a91a                mrp_task_type_get_virtual_type
                0x6a65a949                mrp_task_sched_get_type
                0x6a65a978                mrp_property_type_get_type
                0x6a65a9a7                mrp_string_list_copy
                0x6a65aa04                mrp_string_list_free
 .text          0x6a65aa44      0x894 mrp-property.o
                0x6a65aa87                imrp_property_set_project
                0x6a65aac8                mrp_property_new
                0x6a65ad7a                mrp_property_get_name
                0x6a65adc1                mrp_property_get_property_type
                0x6a65ae24                mrp_property_set_label
                0x6a65aed2                mrp_property_get_label
                0x6a65af35                mrp_property_set_description
                0x6a65afe3                mrp_property_get_description
                0x6a65b046                mrp_property_set_user_defined
                0x6a65b091                mrp_property_get_user_defined
                0x6a65b0cb                mrp_property_ref
                0x6a65b117                mrp_property_unref
                0x6a65b15e                mrp_property_type_as_string
                0x6a65b29d                mrp_property_get_type
 .text          0x6a65b2d8     0x2e08 mrp-time.o
                0x6a65b2d8                mrp_time_compose
                0x6a65b32b                mrp_time_decompose
                0x6a65b3d2                mrp_time_debug_print
                0x6a65b3f7                mrp_time_from_tm
                0x6a65b49f                mrp_time_current_time
                0x6a65b4e8                mrp_time_from_string
                0x6a65b647                mrp_time_to_string
                0x6a65b66c                mrp_time_align_day
                0x6a65b6a4                mrp_time_align_prev
                0x6a65b6db                mrp_time_align_next
                0x6a65b712                mrp_time_day_of_week
                0x6a65b74a                mrp_time_week_number
                0x6a65b777                mrp_param_spec_time
                0x6a65b7b7                mrp_time_day_name
                0x6a65b81c                mrp_time_month_name
                0x6a65b872                mrp_time_month_name_initial
                0x6a65b8c8                imrp_time_init
                0x6a65c5ff                mrp_time_format
                0x6a65c660                mrp_time_format_locale
                0x6a65c6c4                mrp_time2_new
                0x6a65c6f9                mrp_time2_free
                0x6a65c70c                mrp_time2_set_date
                0x6a65c7ed                mrp_time2_set_time
                0x6a65c8bb                mrp_time2_get_date
                0x6a65c994                mrp_time2_get_time
                0x6a65ca56                mrp_time2_add_years
                0x6a65caba                mrp_time2_add_months
                0x6a65cb1e                mrp_time2_add_days
                0x6a65cb82                mrp_time2_add_seconds
                0x6a65cd3e                mrp_time2_add_minutes
                0x6a65cddd                mrp_time2_add_hours
                0x6a65ce6b                mrp_time2_subtract_seconds
                0x6a65d02d                mrp_time2_subtract_minutes
                0x6a65d0cc                mrp_time2_subtract_hours
                0x6a65d15a                mrp_time2_subtract_days
                0x6a65d1be                mrp_time2_subtract_months
                0x6a65d222                mrp_time2_subtract_years
                0x6a65d286                mrp_time2_debug_print
                0x6a65d2ea                mrp_time2_set_from_string
                0x6a65d448                mrp_time2_to_string
                0x6a65d4bf                mrp_time2_set_epoch
                0x6a65d51c                mrp_time2_get_epoch
                0x6a65d5c4                mrp_time2_get_day_name
                0x6a65d61c                mrp_time2_get_month_name
                0x6a65d660                mrp_time2_get_month_initial
                0x6a65d765                mrp_time2_get_week_number
                0x6a65d7f9                mrp_time2_align_prev
                0x6a65db75                mrp_time2_align_next
                0x6a65df6f                mrp_time2_copy
                0x6a65dfdb                mrp_time2_clear
                0x6a65dffe                mrp_time2_compare
 .text          0x6a65e0e0       0x28 mrp-error.o
                0x6a65e0e0                mrp_error_quark
 .text          0x6a65e108      0x3d8 mrp-paths-win32.o
                0x6a65e108                mrp_paths_get_glade_dir
                0x6a65e16f                mrp_paths_get_image_dir
                0x6a65e1d6                mrp_paths_get_plugin_dir
                0x6a65e23d                mrp_paths_get_dtd_dir
                0x6a65e2a4                mrp_paths_get_stylesheet_dir
                0x6a65e30b                mrp_paths_get_ui_dir
                0x6a65e372                mrp_paths_get_storagemodule_dir
                0x6a65e3d9                mrp_paths_get_file_modules_dir
                0x6a65e440                mrp_paths_get_sql_dir
                0x6a65e490                mrp_paths_get_locale_dir
 .text          0x6a65e4e0        0x8 C:/MinGW/msys/1.0/dev/lib/libgobject-2.0.dll.a(d000327.o)
                0x6a65e4e0                g_value_peek_pointer
 .text          0x6a65e4e8        0x8 C:/MinGW/msys/1.0/dev/lib/libgobject-2.0.dll.a(d000280.o)
                0x6a65e4e8                g_type_register_static
 .text          0x6a65e4f0        0x8 C:/MinGW/msys/1.0/dev/lib/libgobject-2.0.dll.a(d000220.o)
                0x6a65e4f0                g_type_check_class_cast
 .text          0x6a65e4f8        0x8 C:/MinGW/msys/1.0/dev/lib/libgobject-2.0.dll.a(d000232.o)
                0x6a65e4f8                g_type_class_peek_parent
 .text          0x6a65e500        0x8 C:/MinGW/msys/1.0/dev/lib/libgobject-2.0.dll.a(d000223.o)
                0x6a65e500                g_type_check_instance_cast
 .text          0x6a65e508        0x8 C:/MinGW/msys/1.0/dev/lib/libgobject-2.0.dll.a(d000224.o)
                0x6a65e508                g_type_check_instance_is_a
 .text          0x6a65e510        0x8 C:/MinGW/msys/1.0/dev/lib/libgobject-2.0.dll.a(d000098.o)
                0x6a65e510                g_object_new
 .text          0x6a65e518        0x8 C:/MinGW/msys/1.0/dev/lib/libgobject-2.0.dll.a(d000139.o)
                0x6a65e518                g_param_spec_object
 .text          0x6a65e520        0x8 C:/MinGW/msys/1.0/dev/lib/libgobject-2.0.dll.a(d000080.o)
                0x6a65e520                g_object_class_install_property
 .text          0x6a65e528        0x8 C:/MinGW/msys/1.0/dev/lib/libgobject-2.0.dll.a(d000135.o)
                0x6a65e528                g_param_spec_int
 .text          0x6a65e530        0x8 C:/MinGW/msys/1.0/dev/lib/libgobject-2.0.dll.a(d000118.o)
                0x6a65e530                g_object_unref
 .text          0x6a65e538        0x8 C:/MinGW/msys/1.0/dev/lib/libgobject-2.0.dll.a(d000316.o)
                0x6a65e538                g_value_get_object
 .text          0x6a65e540        0x8 C:/MinGW/msys/1.0/dev/lib/libgobject-2.0.dll.a(d000103.o)
                0x6a65e540                g_object_ref
 .text          0x6a65e548        0x8 C:/MinGW/msys/1.0/dev/lib/libgobject-2.0.dll.a(d000313.o)
                0x6a65e548                g_value_get_int
 .text          0x6a65e550        0x8 C:/MinGW/msys/1.0/dev/lib/libgobject-2.0.dll.a(d000343.o)
                0x6a65e550                g_value_set_object
 .text          0x6a65e558        0x8 C:/MinGW/msys/1.0/dev/lib/libgobject-2.0.dll.a(d000340.o)
                0x6a65e558                g_value_set_int
 .text          0x6a65e560        0x8 C:/MinGW/msys/1.0/dev/lib/libgobject-2.0.dll.a(d000266.o)
                0x6a65e560                g_type_name
 .text          0x6a65e568        0x8 C:/MinGW/msys/1.0/dev/lib/libgobject-2.0.dll.a(d000155.o)
                0x6a65e568                g_param_spec_string
 .text          0x6a65e570        0x8 C:/MinGW/msys/1.0/dev/lib/libgobject-2.0.dll.a(d000319.o)
                0x6a65e570                g_value_get_string
 .text          0x6a65e578        0x8 C:/MinGW/msys/1.0/dev/lib/libgobject-2.0.dll.a(d000350.o)
                0x6a65e578                g_value_set_string
 .text          0x6a65e580        0x8 C:/MinGW/msys/1.0/dev/lib/libgobject-2.0.dll.a(d000034.o)
                0x6a65e580                g_cclosure_marshal_VOID__VOID
 .text          0x6a65e588        0x8 C:/MinGW/msys/1.0/dev/lib/libgobject-2.0.dll.a(d000200.o)
                0x6a65e588                g_signal_new
 .text          0x6a65e590        0x8 C:/MinGW/msys/1.0/dev/lib/libgobject-2.0.dll.a(d000142.o)
                0x6a65e590                g_param_spec_pointer
 .text          0x6a65e598        0x8 C:/MinGW/msys/1.0/dev/lib/libgobject-2.0.dll.a(d000318.o)
                0x6a65e598                g_value_get_pointer
 .text          0x6a65e5a0        0x8 C:/MinGW/msys/1.0/dev/lib/libgobject-2.0.dll.a(d000108.o)
                0x6a65e5a0                g_object_set
 .text          0x6a65e5a8        0x8 C:/MinGW/msys/1.0/dev/lib/libgobject-2.0.dll.a(d000182.o)
                0x6a65e5a8                g_signal_emit
 .text          0x6a65e5b0        0x8 C:/MinGW/msys/1.0/dev/lib/libgobject-2.0.dll.a(d000011.o)
                0x6a65e5b0                g_boxed_type_register_static
 .text          0x6a65e5b8        0x8 C:/MinGW/msys/1.0/dev/lib/libgobject-2.0.dll.a(d000183.o)
                0x6a65e5b8                g_signal_emit_by_name
 .text          0x6a65e5c0        0x8 C:/MinGW/msys/1.0/dev/lib/libgobject-2.0.dll.a(d000180.o)
                0x6a65e5c0                g_signal_connect_data
 .text          0x6a65e5c8        0x8 C:/MinGW/msys/1.0/dev/lib/libgobject-2.0.dll.a(d000194.o)
                0x6a65e5c8                g_signal_handlers_disconnect_matched
 .text          0x6a65e5d0        0x8 C:/MinGW/msys/1.0/dev/lib/libgobject-2.0.dll.a(d000320.o)
                0x6a65e5d0                g_value_get_type
 .text          0x6a65e5d8        0x8 C:/MinGW/msys/1.0/dev/lib/libgobject-2.0.dll.a(d000326.o)
                0x6a65e5d8                g_value_init
 .text          0x6a65e5e0        0x8 C:/MinGW/msys/1.0/dev/lib/libgobject-2.0.dll.a(d000298.o)
                0x6a65e5e0                g_value_copy
 .text          0x6a65e5e8        0x8 C:/MinGW/msys/1.0/dev/lib/libgobject-2.0.dll.a(d000365.o)
                0x6a65e5e8                g_value_unset
 .text          0x6a65e5f0        0x8 C:/MinGW/msys/1.0/dev/lib/libgobject-2.0.dll.a(d000168.o)
                0x6a65e5f0                g_param_value_set_default
 .text          0x6a65e5f8        0x8 C:/MinGW/msys/1.0/dev/lib/libgobject-2.0.dll.a(d000181.o)
                0x6a65e5f8                g_signal_connect_object
 .text          0x6a65e600        0x8 C:/MinGW/msys/1.0/dev/lib/libgobject-2.0.dll.a(d000078.o)
                0x6a65e600                g_object_class_find_property
 .text          0x6a65e608        0x8 C:/MinGW/msys/1.0/dev/lib/libgobject-2.0.dll.a(d000286.o)
                0x6a65e608                g_type_value_table_peek
 .text          0x6a65e610        0x8 C:/MinGW/msys/1.0/dev/lib/libgobject-2.0.dll.a(d000111.o)
                0x6a65e610                g_object_set_property
 .text          0x6a65e618        0x8 C:/MinGW/msys/1.0/dev/lib/libgobject-2.0.dll.a(d000090.o)
                0x6a65e618                g_object_get_property
 .text          0x6a65e620        0x8 C:/MinGW/msys/1.0/dev/lib/libgobject-2.0.dll.a(d000025.o)
                0x6a65e620                g_cclosure_marshal_VOID__OBJECT
 .text          0x6a65e628        0x8 C:/MinGW/msys/1.0/dev/lib/libgobject-2.0.dll.a(d000016.o)
                0x6a65e628                g_cclosure_marshal_VOID__BOOLEAN
 .text          0x6a65e630        0x8 C:/MinGW/msys/1.0/dev/lib/libgobject-2.0.dll.a(d000027.o)
                0x6a65e630                g_cclosure_marshal_VOID__POINTER
 .text          0x6a65e638        0x8 C:/MinGW/msys/1.0/dev/lib/libgobject-2.0.dll.a(d000147.o)
                0x6a65e638                g_param_spec_pool_new
 .text          0x6a65e640        0x8 C:/MinGW/msys/1.0/dev/lib/libgobject-2.0.dll.a(d000315.o)
                0x6a65e640                g_value_get_long
 .text          0x6a65e648        0x8 C:/MinGW/msys/1.0/dev/lib/libgobject-2.0.dll.a(d000302.o)
                0x6a65e648                g_value_dup_string
 .text          0x6a65e650        0x8 C:/MinGW/msys/1.0/dev/lib/libgobject-2.0.dll.a(d000342.o)
                0x6a65e650                g_value_set_long
 .text          0x6a65e658        0x8 C:/MinGW/msys/1.0/dev/lib/libgobject-2.0.dll.a(d000347.o)
                0x6a65e658                g_value_set_pointer
 .text          0x6a65e660        0x8 C:/MinGW/msys/1.0/dev/lib/libgobject-2.0.dll.a(d000089.o)
                0x6a65e660                g_object_get_data
 .text          0x6a65e668        0x8 C:/MinGW/msys/1.0/dev/lib/libgobject-2.0.dll.a(d000259.o)
                0x6a65e668                g_type_module_get_type
 .text          0x6a65e670        0x8 C:/MinGW/msys/1.0/dev/lib/libgobject-2.0.dll.a(d000264.o)
                0x6a65e670                g_type_module_unuse
 .text          0x6a65e678        0x8 C:/MinGW/msys/1.0/dev/lib/libgobject-2.0.dll.a(d000088.o)
                0x6a65e678                g_object_get
 .text          0x6a65e680        0x8 C:/MinGW/msys/1.0/dev/lib/libgobject-2.0.dll.a(d000146.o)
                0x6a65e680                g_param_spec_pool_lookup
 .text          0x6a65e688        0x8 C:/MinGW/msys/1.0/dev/lib/libgobject-2.0.dll.a(d000145.o)
                0x6a65e688                g_param_spec_pool_list_owned
 .text          0x6a65e690        0x8 C:/MinGW/msys/1.0/dev/lib/libgobject-2.0.dll.a(d000143.o)
                0x6a65e690                g_param_spec_pool_insert
 .text          0x6a65e698        0x8 C:/MinGW/msys/1.0/dev/lib/libgobject-2.0.dll.a(d000148.o)
                0x6a65e698                g_param_spec_pool_remove
 .text          0x6a65e6a0        0x8 C:/MinGW/msys/1.0/dev/lib/libgobject-2.0.dll.a(d000128.o)
                0x6a65e6a0                g_param_spec_float
 .text          0x6a65e6a8        0x8 C:/MinGW/msys/1.0/dev/lib/libgobject-2.0.dll.a(d000122.o)
                0x6a65e6a8                g_param_spec_boolean
 .text          0x6a65e6b0        0x8 C:/MinGW/msys/1.0/dev/lib/libgobject-2.0.dll.a(d000305.o)
                0x6a65e6b0                g_value_get_boolean
 .text          0x6a65e6b8        0x8 C:/MinGW/msys/1.0/dev/lib/libgobject-2.0.dll.a(d000311.o)
                0x6a65e6b8                g_value_get_float
 .text          0x6a65e6c0        0x8 C:/MinGW/msys/1.0/dev/lib/libgobject-2.0.dll.a(d000330.o)
                0x6a65e6c0                g_value_set_boolean
 .text          0x6a65e6c8        0x8 C:/MinGW/msys/1.0/dev/lib/libgobject-2.0.dll.a(d000337.o)
                0x6a65e6c8                g_value_set_float
 .text          0x6a65e6d0        0x8 C:/MinGW/msys/1.0/dev/lib/libgobject-2.0.dll.a(d000263.o)
                0x6a65e6d0                g_type_module_set_name
 .text          0x6a65e6d8        0x8 C:/MinGW/msys/1.0/dev/lib/libgobject-2.0.dll.a(d000265.o)
                0x6a65e6d8                g_type_module_use
 .text          0x6a65e6e0        0x8 C:/MinGW/msys/1.0/dev/lib/libgobject-2.0.dll.a(d000192.o)
                0x6a65e6e0                g_signal_handlers_block_matched
 .text          0x6a65e6e8        0x8 C:/MinGW/msys/1.0/dev/lib/libgobject-2.0.dll.a(d000195.o)
                0x6a65e6e8                g_signal_handlers_unblock_matched
 .text          0x6a65e6f0        0x8 C:/MinGW/msys/1.0/dev/lib/libgobject-2.0.dll.a(d000101.o)
                0x6a65e6f0                g_object_notify
 .text          0x6a65e6f8        0x8 C:/MinGW/msys/1.0/dev/lib/libgobject-2.0.dll.a(d000126.o)
                0x6a65e6f8                g_param_spec_enum
 .text          0x6a65e700        0x8 C:/MinGW/msys/1.0/dev/lib/libgobject-2.0.dll.a(d000123.o)
                0x6a65e700                g_param_spec_boxed
 .text          0x6a65e708        0x8 C:/MinGW/msys/1.0/dev/lib/libgobject-2.0.dll.a(d000309.o)
                0x6a65e708                g_value_get_enum
 .text          0x6a65e710        0x8 C:/MinGW/msys/1.0/dev/lib/libgobject-2.0.dll.a(d000306.o)
                0x6a65e710                g_value_get_boxed
 .text          0x6a65e718        0x8 C:/MinGW/msys/1.0/dev/lib/libgobject-2.0.dll.a(d000335.o)
                0x6a65e718                g_value_set_enum
 .text          0x6a65e720        0x8 C:/MinGW/msys/1.0/dev/lib/libgobject-2.0.dll.a(d000331.o)
                0x6a65e720                g_value_set_boxed
 .text          0x6a65e728        0x8 C:/MinGW/msys/1.0/dev/lib/libgobject-2.0.dll.a(d000060.o)
                0x6a65e728                g_enum_register_static
 .text          0x6a65e730        0x8 C:/MinGW/msys/1.0/dev/lib/libgobject-2.0.dll.a(d000151.o)
                0x6a65e730                g_param_spec_set_qdata
 .text          0x6a65e738        0x8 C:/MinGW/msys/1.0/dev/lib/libgobject-2.0.dll.a(d000152.o)
                0x6a65e738                g_param_spec_set_qdata_full
 .text          0x6a65e740        0x8 C:/MinGW/msys/1.0/dev/lib/libgobject-2.0.dll.a(d000132.o)
                0x6a65e740                g_param_spec_get_qdata
 .text          0x6a65e748        0x8 C:/MinGW/msys/1.0/dev/lib/libgobject-2.0.dll.a(d000149.o)
                0x6a65e748                g_param_spec_ref
 .text          0x6a65e750        0x8 C:/MinGW/msys/1.0/dev/lib/libgobject-2.0.dll.a(d000162.o)
                0x6a65e750                g_param_spec_unref
 .text          0x6a65e758        0x8 C:/MinGW/msys/1.0/dev/lib/libgobject-2.0.dll.a(d000163.o)
                0x6a65e758                g_param_spec_value_array
 .text          0x6a65e760        0x8 C:/MinGW/msys/1.0/dev/lib/libgobject-2.0.dll.a(d000138.o)
                0x6a65e760                g_param_spec_long
 .text          0x6a65e768        0x8 C:/MinGW/msys/1.0/dev/lib/libgmodule-2.0.dll.a(d000006.o)
                0x6a65e768                g_module_open_utf8
 .text          0x6a65e770        0x8 C:/MinGW/msys/1.0/dev/lib/libgmodule-2.0.dll.a(d000003.o)
                0x6a65e770                g_module_error
 .text          0x6a65e778        0x8 C:/MinGW/msys/1.0/dev/lib/libgmodule-2.0.dll.a(d000008.o)
                0x6a65e778                g_module_symbol
 .text          0x6a65e780        0x8 C:/MinGW/msys/1.0/dev/lib/libgmodule-2.0.dll.a(d000002.o)
                0x6a65e780                g_module_close
 .text          0x6a65e788        0x8 C:/MinGW/msys/1.0/dev/lib/libgmodule-2.0.dll.a(d000001.o)
                0x6a65e788                g_module_build_path
 .text          0x6a65e790        0x8 C:/MinGW/msys/1.0/dev/lib/libglib-2.0.dll.a(d000832.o)
                0x6a65e790                g_return_if_fail_warning
 .text          0x6a65e798        0x8 C:/MinGW/msys/1.0/dev/lib/libglib-2.0.dll.a(d000361.o)
                0x6a65e798                g_hash_table_new
 .text          0x6a65e7a0        0x8 C:/MinGW/msys/1.0/dev/lib/libglib-2.0.dll.a(d000538.o)
                0x6a65e7a0                g_log
 .text          0x6a65e7a8        0x8 C:/MinGW/msys/1.0/dev/lib/libglib-2.0.dll.a(d000583.o)
                0x6a65e7a8                g_malloc0_n
 .text          0x6a65e7b0        0x8 C:/MinGW/msys/1.0/dev/lib/libglib-2.0.dll.a(d000324.o)
                0x6a65e7b0                g_free
 .text          0x6a65e7b8        0x8 C:/MinGW/msys/1.0/dev/lib/libglib-2.0.dll.a(d000512.o)
                0x6a65e7b8                g_list_foreach
 .text          0x6a65e7c0        0x8 C:/MinGW/msys/1.0/dev/lib/libglib-2.0.dll.a(d000513.o)
                0x6a65e7c0                g_list_free
 .text          0x6a65e7c8        0x8 C:/MinGW/msys/1.0/dev/lib/libglib-2.0.dll.a(d000527.o)
                0x6a65e7c8                g_list_prepend
 .text          0x6a65e7d0        0x8 C:/MinGW/msys/1.0/dev/lib/libglib-2.0.dll.a(d000359.o)
                0x6a65e7d0                g_hash_table_lookup
 .text          0x6a65e7d8        0x8 C:/MinGW/msys/1.0/dev/lib/libglib-2.0.dll.a(d000353.o)
                0x6a65e7d8                g_hash_table_insert
 .text          0x6a65e7e0        0x8 C:/MinGW/msys/1.0/dev/lib/libglib-2.0.dll.a(d000040.o)
                0x6a65e7e0                g_assertion_message_expr
 .text          0x6a65e7e8        0x8 C:/MinGW/msys/1.0/dev/lib/libglib-2.0.dll.a(d000364.o)
                0x6a65e7e8                g_hash_table_remove
 .text          0x6a65e7f0        0x8 C:/MinGW/msys/1.0/dev/lib/libglib-2.0.dll.a(d001009.o)
                0x6a65e7f0                g_strdup
 .text          0x6a65e7f8        0x8 C:/MinGW/msys/1.0/dev/lib/libglib-2.0.dll.a(d000362.o)
                0x6a65e7f8                g_hash_table_new_full
 .text          0x6a65e800        0x8 C:/MinGW/msys/1.0/dev/lib/libglib-2.0.dll.a(d000346.o)
                0x6a65e800                g_hash_table_destroy
 .text          0x6a65e808        0x8 C:/MinGW/msys/1.0/dev/lib/libglib-2.0.dll.a(d000529.o)
                0x6a65e808                g_list_remove
 .text          0x6a65e810        0x8 C:/MinGW/msys/1.0/dev/lib/libglib-2.0.dll.a(d000507.o)
                0x6a65e810                g_list_copy
 .text          0x6a65e818        0x8 C:/MinGW/msys/1.0/dev/lib/libglib-2.0.dll.a(d000348.o)
                0x6a65e818                g_hash_table_foreach
 .text          0x6a65e820        0x8 C:/MinGW/msys/1.0/dev/lib/libglib-2.0.dll.a(d000533.o)
                0x6a65e820                g_list_sort
 .text          0x6a65e828        0x8 C:/MinGW/msys/1.0/dev/lib/libglib-2.0.dll.a(d000532.o)
                0x6a65e828                g_list_reverse
 .text          0x6a65e830        0x8 C:/MinGW/msys/1.0/dev/lib/libglib-2.0.dll.a(d000737.o)
                0x6a65e830                g_quark_from_string
 .text          0x6a65e838        0x8 C:/MinGW/msys/1.0/dev/lib/libglib-2.0.dll.a(d000368.o)
                0x6a65e838                g_hash_table_steal
 .text          0x6a65e840        0x8 C:/MinGW/msys/1.0/dev/lib/libglib-2.0.dll.a(d000036.o)
                0x6a65e840                g_assertion_message
 .text          0x6a65e848        0x8 C:/MinGW/msys/1.0/dev/lib/libglib-2.0.dll.a(d000291.o)
                0x6a65e848                g_dir_open_utf8
 .text          0x6a65e850        0x8 C:/MinGW/msys/1.0/dev/lib/libglib-2.0.dll.a(d000998.o)
                0x6a65e850                g_str_has_suffix
 .text          0x6a65e858        0x8 C:/MinGW/msys/1.0/dev/lib/libglib-2.0.dll.a(d000126.o)
                0x6a65e858                g_build_filename
 .text          0x6a65e860        0x8 C:/MinGW/msys/1.0/dev/lib/libglib-2.0.dll.a(d000292.o)
                0x6a65e860                g_dir_read_name_utf8
 .text          0x6a65e868        0x8 C:/MinGW/msys/1.0/dev/lib/libglib-2.0.dll.a(d000290.o)
                0x6a65e868                g_dir_close
 .text          0x6a65e870        0x8 C:/MinGW/msys/1.0/dev/lib/libglib-2.0.dll.a(d000891.o)
                0x6a65e870                g_set_error
 .text          0x6a65e878        0x8 C:/MinGW/msys/1.0/dev/lib/libglib-2.0.dll.a(d000309.o)
                0x6a65e878                g_file_get_contents_utf8
 .text          0x6a65e880        0x8 C:/MinGW/msys/1.0/dev/lib/libglib-2.0.dll.a(d001006.o)
                0x6a65e880                g_strconcat
 .text          0x6a65e888        0x8 C:/MinGW/msys/1.0/dev/lib/libglib-2.0.dll.a(d000024.o)
                0x6a65e888                g_ascii_strcasecmp
 .text          0x6a65e890        0x8 C:/MinGW/msys/1.0/dev/lib/libglib-2.0.dll.a(d000505.o)
                0x6a65e890                g_list_append
 .text          0x6a65e898        0x8 C:/MinGW/msys/1.0/dev/lib/libglib-2.0.dll.a(d000515.o)
                0x6a65e898                g_list_index
 .text          0x6a65e8a0        0x8 C:/MinGW/msys/1.0/dev/lib/libglib-2.0.dll.a(d001010.o)
                0x6a65e8a0                g_strdup_printf
 .text          0x6a65e8a8        0x8 C:/MinGW/msys/1.0/dev/lib/libglib-2.0.dll.a(d000996.o)
                0x6a65e8a8                g_str_equal
 .text          0x6a65e8b0        0x8 C:/MinGW/msys/1.0/dev/lib/libglib-2.0.dll.a(d000999.o)
                0x6a65e8b0                g_str_hash
 .text          0x6a65e8b8        0x8 C:/MinGW/msys/1.0/dev/lib/libglib-2.0.dll.a(d001038.o)
                0x6a65e8b8                g_string_insert_c
 .text          0x6a65e8c0        0x8 C:/MinGW/msys/1.0/dev/lib/libglib-2.0.dll.a(d000663.o)
                0x6a65e8c0                g_node_traverse
 .text          0x6a65e8c8        0x8 C:/MinGW/msys/1.0/dev/lib/libglib-2.0.dll.a(d001041.o)
                0x6a65e8c8                g_string_new
 .text          0x6a65e8d0        0x8 C:/MinGW/msys/1.0/dev/lib/libglib-2.0.dll.a(d001035.o)
                0x6a65e8d0                g_string_free
 .text          0x6a65e8d8        0x8 C:/MinGW/msys/1.0/dev/lib/libglib-2.0.dll.a(d000712.o)
                0x6a65e8d8                g_print
 .text          0x6a65e8e0        0x8 C:/MinGW/msys/1.0/dev/lib/libglib-2.0.dll.a(d000531.o)
                0x6a65e8e0                g_list_remove_link
 .text          0x6a65e8e8        0x8 C:/MinGW/msys/1.0/dev/lib/libglib-2.0.dll.a(d000584.o)
                0x6a65e8e8                g_malloc_n
 .text          0x6a65e8f0        0x8 C:/MinGW/msys/1.0/dev/lib/libglib-2.0.dll.a(d000721.o)
                0x6a65e8f0                g_ptr_array_new
 .text          0x6a65e8f8        0x8 C:/MinGW/msys/1.0/dev/lib/libglib-2.0.dll.a(d000718.o)
                0x6a65e8f8                g_ptr_array_add
 .text          0x6a65e900        0x8 C:/MinGW/msys/1.0/dev/lib/libglib-2.0.dll.a(d000732.o)
                0x6a65e900                g_ptr_array_sort
 .text          0x6a65e908        0x8 C:/MinGW/msys/1.0/dev/lib/libglib-2.0.dll.a(d000720.o)
                0x6a65e908                g_ptr_array_free
 .text          0x6a65e910        0x8 C:/MinGW/msys/1.0/dev/lib/libglib-2.0.dll.a(d000521.o)
                0x6a65e910                g_list_length
 .text          0x6a65e918        0x8 C:/MinGW/msys/1.0/dev/lib/libglib-2.0.dll.a(d000509.o)
                0x6a65e918                g_list_find
 .text          0x6a65e920        0x8 C:/MinGW/msys/1.0/dev/lib/libglib-2.0.dll.a(d000714.o)
                0x6a65e920                g_printf
 .text          0x6a65e928        0x8 C:/MinGW/msys/1.0/dev/lib/libglib-2.0.dll.a(d000523.o)
                0x6a65e928                g_list_nth_data
 .text          0x6a65e930        0x8 C:/MinGW/msys/1.0/dev/lib/libglib-2.0.dll.a(d000506.o)
                0x6a65e930                g_list_concat
 .text          0x6a65e938        0x8 C:/MinGW/msys/1.0/dev/lib/libglib-2.0.dll.a(d001004.o)
                0x6a65e938                g_strcmp0
 .text          0x6a65e940        0x8 C:/MinGW/msys/1.0/dev/lib/libglib-2.0.dll.a(d000657.o)
                0x6a65e940                g_node_new
 .text          0x6a65e948        0x8 C:/MinGW/msys/1.0/dev/lib/libglib-2.0.dll.a(d000643.o)
                0x6a65e948                g_node_destroy
 .text          0x6a65e950        0x8 C:/MinGW/msys/1.0/dev/lib/libglib-2.0.dll.a(d000664.o)
                0x6a65e950                g_node_unlink
 .text          0x6a65e958        0x8 C:/MinGW/msys/1.0/dev/lib/libglib-2.0.dll.a(d000652.o)
                0x6a65e958                g_node_last_child
 .text          0x6a65e960        0x8 C:/MinGW/msys/1.0/dev/lib/libglib-2.0.dll.a(d000650.o)
                0x6a65e960                g_node_insert_before
 .text          0x6a65e968        0x8 C:/MinGW/msys/1.0/dev/lib/libglib-2.0.dll.a(d000660.o)
                0x6a65e968                g_node_prepend
 .text          0x6a65e970        0x8 C:/MinGW/msys/1.0/dev/lib/libglib-2.0.dll.a(d000649.o)
                0x6a65e970                g_node_insert_after
 .text          0x6a65e978        0x8 C:/MinGW/msys/1.0/dev/lib/libglib-2.0.dll.a(d000648.o)
                0x6a65e978                g_node_insert
 .text          0x6a65e980        0x8 C:/MinGW/msys/1.0/dev/lib/libglib-2.0.dll.a(d000655.o)
                0x6a65e980                g_node_n_children
 .text          0x6a65e988        0x8 C:/MinGW/msys/1.0/dev/lib/libglib-2.0.dll.a(d000658.o)
                0x6a65e988                g_node_nth_child
 .text          0x6a65e990        0x8 C:/MinGW/msys/1.0/dev/lib/libglib-2.0.dll.a(d000638.o)
                0x6a65e990                g_node_child_position
 .text          0x6a65e998        0x8 C:/MinGW/msys/1.0/dev/lib/libglib-2.0.dll.a(d000642.o)
                0x6a65e998                g_node_depth
 .text          0x6a65e9a0        0x8 C:/MinGW/msys/1.0/dev/lib/libglib-2.0.dll.a(d000736.o)
                0x6a65e9a0                g_quark_from_static_string
 .text          0x6a65e9a8        0x8 C:/MinGW/msys/1.0/dev/lib/libglib-2.0.dll.a(d000345.o)
                0x6a65e9a8                g_getenv_utf8
 .text          0x6a65e9b0        0x8 C:/MinGW/msys/1.0/dev/lib/libglib-2.0.dll.a(d000896.o)
                0x6a65e9b0                g_setenv_utf8
 .text          0x6a65e9b8        0x8 C:/MinGW/msys/1.0/dev/lib/libglib-2.0.dll.a(d001222.o)
                0x6a65e9b8                g_unsetenv_utf8
 .text          0x6a65e9c0        0x8 C:/MinGW/msys/1.0/dev/lib/libglib-2.0.dll.a(d000211.o)
                0x6a65e9c0                g_date_get_weekday
 .text          0x6a65e9c8        0x8 C:/MinGW/msys/1.0/dev/lib/libglib-2.0.dll.a(d000208.o)
                0x6a65e9c8                g_date_get_month
 .text          0x6a65e9d0        0x8 C:/MinGW/msys/1.0/dev/lib/libglib-2.0.dll.a(d000581.o)
                0x6a65e9d0                g_malloc
 .text          0x6a65e9d8        0x8 C:/MinGW/msys/1.0/dev/lib/libglib-2.0.dll.a(d000537.o)
                0x6a65e9d8                g_locale_to_utf8
 .text          0x6a65e9e0        0x8 C:/MinGW/msys/1.0/dev/lib/libglib-2.0.dll.a(d000795.o)
                0x6a65e9e0                g_realloc
 .text          0x6a65e9e8        0x8 C:/MinGW/msys/1.0/dev/lib/libglib-2.0.dll.a(d001237.o)
                0x6a65e9e8                g_utf8_get_char
 .text          0x6a65e9f0        0x8 C:/MinGW/msys/1.0/dev/lib/libglib-2.0.dll.a(d000582.o)
                0x6a65e9f0                g_malloc0
 .text          0x6a65e9f8        0x8 C:/MinGW/msys/1.0/dev/lib/libglib-2.0.dll.a(d001212.o)
                0x6a65e9f8                g_unichar_to_utf8
 .text          0x6a65ea00        0x8 C:/MinGW/msys/1.0/dev/lib/libglib-2.0.dll.a(d000212.o)
                0x6a65ea00                g_date_get_year
 .text          0x6a65ea08        0x8 C:/MinGW/msys/1.0/dev/lib/libglib-2.0.dll.a(d000201.o)
                0x6a65ea08                g_date_get_day
 .text          0x6a65ea10        0x8 C:/MinGW/msys/1.0/dev/lib/libglib-2.0.dll.a(d000197.o)
                0x6a65ea10                g_date_clear
 .text          0x6a65ea18        0x8 C:/MinGW/msys/1.0/dev/lib/libglib-2.0.dll.a(d000221.o)
                0x6a65ea18                g_date_set_dmy
 .text          0x6a65ea20        0x8 C:/MinGW/msys/1.0/dev/lib/libglib-2.0.dll.a(d000195.o)
                0x6a65ea20                g_date_add_years
 .text          0x6a65ea28        0x8 C:/MinGW/msys/1.0/dev/lib/libglib-2.0.dll.a(d000194.o)
                0x6a65ea28                g_date_add_months
 .text          0x6a65ea30        0x8 C:/MinGW/msys/1.0/dev/lib/libglib-2.0.dll.a(d000193.o)
                0x6a65ea30                g_date_add_days
 .text          0x6a65ea38        0x8 C:/MinGW/msys/1.0/dev/lib/libglib-2.0.dll.a(d000230.o)
                0x6a65ea38                g_date_subtract_days
 .text          0x6a65ea40        0x8 C:/MinGW/msys/1.0/dev/lib/libglib-2.0.dll.a(d000231.o)
                0x6a65ea40                g_date_subtract_months
 .text          0x6a65ea48        0x8 C:/MinGW/msys/1.0/dev/lib/libglib-2.0.dll.a(d000232.o)
                0x6a65ea48                g_date_subtract_years
 .text          0x6a65ea50        0x8 C:/MinGW/msys/1.0/dev/lib/libglib-2.0.dll.a(d000229.o)
                0x6a65ea50                g_date_strftime
 .text          0x6a65ea58        0x8 C:/MinGW/msys/1.0/dev/lib/libglib-2.0.dll.a(d000199.o)
                0x6a65ea58                g_date_days_between
 .text          0x6a65ea60        0x8 C:/MinGW/msys/1.0/dev/lib/libglib-2.0.dll.a(d000205.o)
                0x6a65ea60                g_date_get_julian
 .text          0x6a65ea68        0x8 C:/MinGW/msys/1.0/dev/lib/libglib-2.0.dll.a(d000220.o)
                0x6a65ea68                g_date_set_day
 .text          0x6a65ea70        0x8 C:/MinGW/msys/1.0/dev/lib/libglib-2.0.dll.a(d000223.o)
                0x6a65ea70                g_date_set_month
 .text          0x6a65ea78        0x8 C:/MinGW/msys/1.0/dev/lib/libglib-2.0.dll.a(d000198.o)
                0x6a65ea78                g_date_compare
 .text          0x6a65ea80        0x8 C:/MinGW/msys/1.0/dev/lib/libglib-2.0.dll.a(d001410.o)
                0x6a65ea80                g_win32_get_package_installation_directory_of_module
 .text          0x6a65ea88        0x8 C:/MinGW/msys/1.0/dev/lib/libintl.dll.a(d000011.o)
                0x6a65ea88                libintl_bindtextdomain
 .text          0x6a65ea90        0x8 C:/MinGW/msys/1.0/dev/lib/libintl.dll.a(d000010.o)
                0x6a65ea90                libintl_bind_textdomain_codeset
 .text          0x6a65ea98        0x8 C:/MinGW/msys/1.0/dev/lib/libintl.dll.a(d000017.o)
                0x6a65ea98                libintl_gettext
 .text          0x6a65eaa0        0x8 C:/MinGW/msys/1.0/dev/lib/libintl.dll.a(d000019.o)
                0x6a65eaa0                libintl_printf
 .text          0x6a65eaa8        0x8 C:/MinGW/msys/1.0/dev/lib/libintl.dll.a(d000022.o)
                0x6a65eaa8                libintl_snprintf
 .text          0x6a65eab0      0x1d0 c:/mingw/bin/../lib/gcc/mingw32/4.5.0/../../../libmingw32.a(tlssup.o)
                0x6a65eab0                __tlregdtor
                0x6a65eb00                __dyn_tls_init@12
 .text          0x6a65ec80      0x2e0 c:/mingw/bin/../lib/gcc/mingw32/4.5.0/../../../libmingw32.a(pseudo-reloc.o)
                0x6a65edb0                _pei386_runtime_relocator
 .text          0x6a65ef60       0xb0 c:/mingw/bin/../lib/gcc/mingw32/4.5.0/../../../libmingw32.a(gccmain.o)
                0x6a65ef60                __do_global_dtors
                0x6a65ef90                __do_global_ctors
                0x6a65eff0                __main
 .text          0x6a65f010       0x10 c:/mingw/bin/../lib/gcc/mingw32/4.5.0/../../../libmingw32.a(dllmain.o)
                0x6a65f010                DllMain@12
 .text          0x6a65f020        0x0 c:/mingw/bin/../lib/gcc/mingw32/4.5.0/../../../libmingw32.a(crtst.o)
 .text          0x6a65f020      0x210 c:/mingw/bin/../lib/gcc/mingw32/4.5.0/../../../libmingw32.a(tlsthrd.o)
                0x6a65f0a0                __mingw_TLScallback
                0x6a65f130                ___w64_mingwthr_remove_key_dtor
                0x6a65f1c0                ___w64_mingwthr_add_key_dtor
 .text          0x6a65f230        0x0 c:/mingw/bin/../lib/gcc/mingw32/4.5.0/../../../libmingw32.a(pseudo-reloc-list.o)
 .text          0x6a65f230       0x34 c:/mingw/bin/../lib/gcc/mingw32/4.5.0/libgcc.a(_chkstk.o)
                0x6a65f230                _alloca
                0x6a65f230                __chkstk
 .text          0x6a65f264      0x170 c:/mingw/bin/../lib/gcc/mingw32/4.5.0/libgcc.a(_divdi3.o)
                0x6a65f264                __divdi3
 .text          0x6a65f3d4      0x1b8 c:/mingw/bin/../lib/gcc/mingw32/4.5.0/libgcc.a(_moddi3.o)
                0x6a65f3d4                __moddi3
 .text          0x6a65f58c        0x0 c:/mingw/bin/../lib/gcc/mingw32/4.5.0/libgcc.a(_ctors.o)
 .text          0x6a65f58c        0x8 c:/mingw/bin/../lib/gcc/mingw32/4.5.0/../../../libmoldname.a(dgzls00062.o)
                0x6a65f58c                putenv
 .text          0x6a65f594        0x0 c:/mingw/bin/../lib/gcc/mingw32/4.5.0/../../../libmoldname.a(dgzlh.o)
 .text          0x6a65f594        0x0 c:/mingw/bin/../lib/gcc/mingw32/4.5.0/../../../libmoldname.a(dgzlt.o)
 .text          0x6a65f594        0x8 c:/mingw/bin/../lib/gcc/mingw32/4.5.0/../../../libmsvcrt.a(duyms00052.o)
                0x6a65f594                __dllonexit
 .text          0x6a65f59c        0x8 c:/mingw/bin/../lib/gcc/mingw32/4.5.0/../../../libmsvcrt.a(duyms00625.o)
                0x6a65f59c                free
 .text          0x6a65f5a4        0x8 c:/mingw/bin/../lib/gcc/mingw32/4.5.0/../../../libmsvcrt.a(duyms00610.o)
                0x6a65f5a4                fflush
 .text          0x6a65f5ac        0x8 c:/mingw/bin/../lib/gcc/mingw32/4.5.0/../../../libmsvcrt.a(duyms00676.o)
                0x6a65f5ac                malloc
 .text          0x6a65f5b4        0x8 c:/mingw/bin/../lib/gcc/mingw32/4.5.0/../../../libmsvcrt.a(duyms00182.o)
                0x6a65f5b4                _errno
 .text          0x6a65f5bc        0x8 c:/mingw/bin/../lib/gcc/mingw32/4.5.0/../../../libmsvcrt.a(duyms00715.o)
                0x6a65f5bc                strcmp
 .text          0x6a65f5c4        0x8 c:/mingw/bin/../lib/gcc/mingw32/4.5.0/../../../libmsvcrt.a(duyms00682.o)
                0x6a65f5c4                memcpy
 .text          0x6a65f5cc        0x8 c:/mingw/bin/../lib/gcc/mingw32/4.5.0/../../../libmsvcrt.a(duyms00684.o)
                0x6a65f5cc                memset
 .text          0x6a65f5d4        0x8 c:/mingw/bin/../lib/gcc/mingw32/4.5.0/../../../libmsvcrt.a(duyms00723.o)
                0x6a65f5d4                strncmp
 .text          0x6a65f5dc        0x8 c:/mingw/bin/../lib/gcc/mingw32/4.5.0/../../../libmsvcrt.a(duyms00728.o)
                0x6a65f5dc                strstr
 .text          0x6a65f5e4        0x8 c:/mingw/bin/../lib/gcc/mingw32/4.5.0/../../../libmsvcrt.a(duyms00616.o)
                0x6a65f5e4                floor
 .text          0x6a65f5ec        0x8 c:/mingw/bin/../lib/gcc/mingw32/4.5.0/../../../libmsvcrt.a(duyms00685.o)
                0x6a65f5ec                mktime
 .text          0x6a65f5f4        0x8 c:/mingw/bin/../lib/gcc/mingw32/4.5.0/../../../libmsvcrt.a(duyms00739.o)
                0x6a65f5f4                time
 .text          0x6a65f5fc        0x8 c:/mingw/bin/../lib/gcc/mingw32/4.5.0/../../../libmsvcrt.a(duyms00672.o)
                0x6a65f5fc                localtime
 .text          0x6a65f604        0x8 c:/mingw/bin/../lib/gcc/mingw32/4.5.0/../../../libmsvcrt.a(duyms00641.o)
                0x6a65f604                gmtime
 .text          0x6a65f60c        0x8 c:/mingw/bin/../lib/gcc/mingw32/4.5.0/../../../libmsvcrt.a(duyms00721.o)
                0x6a65f60c                strlen
 .text          0x6a65f614        0x8 c:/mingw/bin/../lib/gcc/mingw32/4.5.0/../../../libmsvcrt.a(duyms00712.o)
                0x6a65f614                sscanf
 .text          0x6a65f61c        0x8 c:/mingw/bin/../lib/gcc/mingw32/4.5.0/../../../libmsvcrt.a(duyms00717.o)
                0x6a65f61c                strcpy
 .text          0x6a65f624        0x8 c:/mingw/bin/../lib/gcc/mingw32/4.5.0/../../../libmsvcrt.a(duyms00720.o)
                0x6a65f624                strftime
 .text          0x6a65f62c        0x0 c:/mingw/bin/../lib/gcc/mingw32/4.5.0/../../../libmsvcrt.a(duyms00538.o)
 .text          0x6a65f62c        0x0 c:/mingw/bin/../lib/gcc/mingw32/4.5.0/../../../libmsvcrt.a(duyms00266.o)
 .text          0x6a65f62c        0x8 c:/mingw/bin/../lib/gcc/mingw32/4.5.0/../../../libmsvcrt.a(duyms00633.o)
                0x6a65f62c                fwrite
 .text          0x6a65f634        0x8 c:/mingw/bin/../lib/gcc/mingw32/4.5.0/../../../libmsvcrt.a(duyms00748.o)
                0x6a65f634                vfprintf
 .text          0x6a65f63c        0x8 c:/mingw/bin/../lib/gcc/mingw32/4.5.0/../../../libmsvcrt.a(duyms00583.o)
                0x6a65f63c                abort
 .text          0x6a65f644        0x8 c:/mingw/bin/../lib/gcc/mingw32/4.5.0/../../../libmsvcrt.a(duyms00595.o)
                0x6a65f644                calloc
 .text          0x6a65f64c        0x0 c:/mingw/bin/../lib/gcc/mingw32/4.5.0/../../../libmsvcrt.a(duymh.o)
 .text          0x6a65f64c        0x0 c:/mingw/bin/../lib/gcc/mingw32/4.5.0/../../../libmsvcrt.a(duymt.o)
 .text          0x6a65f64c        0x8 c:/mingw/bin/../lib/gcc/mingw32/4.5.0/../../../libkernel32.a(dkjes00337.o)
                0x6a65f64c                GetModuleHandleA@4
 .text          0x6a65f654        0x8 c:/mingw/bin/../lib/gcc/mingw32/4.5.0/../../../libkernel32.a(dkjes00364.o)
                0x6a65f654                GetProcAddress@8
 .text          0x6a65f65c        0x8 c:/mingw/bin/../lib/gcc/mingw32/4.5.0/../../../libkernel32.a(dkjes00327.o)
                0x6a65f65c                GetLocaleInfoA@16
 .text          0x6a65f664        0x8 c:/mingw/bin/../lib/gcc/mingw32/4.5.0/../../../libkernel32.a(dkjes00524.o)
                0x6a65f664                LoadLibraryA@4
 .text          0x6a65f66c        0x8 c:/mingw/bin/../lib/gcc/mingw32/4.5.0/../../../libkernel32.a(dkjes00214.o)
                0x6a65f66c                FreeLibrary@4
 .text          0x6a65f674        0x8 c:/mingw/bin/../lib/gcc/mingw32/4.5.0/../../../libkernel32.a(dkjes00801.o)
                0x6a65f674                VirtualQuery@12
 .text          0x6a65f67c        0x8 c:/mingw/bin/../lib/gcc/mingw32/4.5.0/../../../libkernel32.a(dkjes00798.o)
                0x6a65f67c                VirtualProtect@16
 .text          0x6a65f684        0x8 c:/mingw/bin/../lib/gcc/mingw32/4.5.0/../../../libkernel32.a(dkjes00765.o)
                0x6a65f684                TlsGetValue@4
 .text          0x6a65f68c        0x8 c:/mingw/bin/../lib/gcc/mingw32/4.5.0/../../../libkernel32.a(dkjes00325.o)
                0x6a65f68c                GetLastError@0
 .text          0x6a65f694        0x8 c:/mingw/bin/../lib/gcc/mingw32/4.5.0/../../../libkernel32.a(dkjes00107.o)
                0x6a65f694                DeleteCriticalSection@4
 .text          0x6a65f69c        0x8 c:/mingw/bin/../lib/gcc/mingw32/4.5.0/../../../libkernel32.a(dkjes00492.o)
                0x6a65f69c                InitializeCriticalSection@4
 .text          0x6a65f6a4        0x8 c:/mingw/bin/../lib/gcc/mingw32/4.5.0/../../../libkernel32.a(dkjes00126.o)
                0x6a65f6a4                EnterCriticalSection@4
 .text          0x6a65f6ac        0x8 c:/mingw/bin/../lib/gcc/mingw32/4.5.0/../../../libkernel32.a(dkjes00523.o)
                0x6a65f6ac                LeaveCriticalSection@4
 .text          0x6a65f6b4        0x0 c:/mingw/bin/../lib/gcc/mingw32/4.5.0/../../../libkernel32.a(dkjeh.o)
 .text          0x6a65f6b4        0x0 c:/mingw/bin/../lib/gcc/mingw32/4.5.0/../../../libkernel32.a(dkjet.o)
 .text          0x6a65f6b4       0x1c c:/mingw/bin/../lib/gcc/mingw32/4.5.0/crtend.o
 *(SORT(.text$*))
 *(.text.*)
 *(.glue_7t)
 *(.glue_7)
                0x6a65f6d0                ___CTOR_LIST__ = .
                0x6a65f6d0                __CTOR_LIST__ = .
                0x6a65f6d0        0x4 LONG 0xffffffff
 *(.ctors)
 *(.ctor)
 *(SORT(.ctors.*))
 .ctors.65535   0x6a65f6d4        0x4 c:/mingw/bin/../lib/gcc/mingw32/4.5.0/crtend.o
                0x6a65f6d8        0x4 LONG 0x0
                0x6a65f6dc                ___DTOR_LIST__ = .
                0x6a65f6dc                __DTOR_LIST__ = .
                0x6a65f6dc        0x4 LONG 0xffffffff
 *(.dtors)
 *(.dtor)
 *(SORT(.dtors.*))
                0x6a65f6e0        0x4 LONG 0x0
 *(.fini)
 *(.gcc_exc)
                0x6a65f6e4                PROVIDE (etext, .)
 *(.gcc_except_table)

.data           0x6a660000      0x200
                0x6a660000                __data_start__ = .
 *(.data)
 .data          0x6a660000        0x0 c:/mingw/bin/../lib/gcc/mingw32/4.5.0/../../../dllcrt2.o
 .data          0x6a660000        0x0 c:/mingw/bin/../lib/gcc/mingw32/4.5.0/crtbegin.o
 .data          0x6a660000        0x0 mrp-marshal.o
 .data          0x6a660000        0x4 mrp-application.o
 .data          0x6a660004        0x0 mrp-assignment.o
 .data          0x6a660004        0x0 mrp-group-assignment.o
 .data          0x6a660004        0x0 mrp-qualification.o
 .data          0x6a660004        0x0 mrp-calendar.o
 .data          0x6a660004        0x0 mrp-day.o
 .data          0x6a660004        0x0 mrp-group.o
 .data          0x6a660004        0x0 mrp-object.o
 .data          0x6a660004        0x0 mrp-file-module.o
 .data          0x6a660004        0x0 mrp-project.o
 .data          0x6a660004        0x0 mrp-resource.o
 .data          0x6a660004        0x0 mrp-storage-module.o
 .data          0x6a660004        0x0 mrp-storage-module-factory.o
 .data          0x6a660004        0x0 mrp-task-manager.o
 .data          0x6a660004        0x0 mrp-task.o
 .data          0x6a660004        0x0 mrp-relation.o
 .data          0x6a660004        0x0 mrp-types.o
 .data          0x6a660004        0x0 mrp-property.o
 .data          0x6a660004        0x0 mrp-time.o
 .data          0x6a660004        0x0 mrp-error.o
 .data          0x6a660004        0x0 mrp-paths-win32.o
 .data          0x6a660004        0x0 c:/mingw/bin/../lib/gcc/mingw32/4.5.0/../../../libmingw32.a(tlssup.o)
 .data          0x6a660004        0x0 c:/mingw/bin/../lib/gcc/mingw32/4.5.0/../../../libmingw32.a(pseudo-reloc.o)
 .data          0x6a660004        0x4 c:/mingw/bin/../lib/gcc/mingw32/4.5.0/../../../libmingw32.a(gccmain.o)
 .data          0x6a660008        0x0 c:/mingw/bin/../lib/gcc/mingw32/4.5.0/../../../libmingw32.a(dllmain.o)
 .data          0x6a660008        0x0 c:/mingw/bin/../lib/gcc/mingw32/4.5.0/../../../libmingw32.a(crtst.o)
 .data          0x6a660008        0x0 c:/mingw/bin/../lib/gcc/mingw32/4.5.0/../../../libmingw32.a(tlsthrd.o)
 .data          0x6a660008        0x0 c:/mingw/bin/../lib/gcc/mingw32/4.5.0/../../../libmingw32.a(pseudo-reloc-list.o)
 .data          0x6a660008        0x0 c:/mingw/bin/../lib/gcc/mingw32/4.5.0/libgcc.a(_chkstk.o)
 .data          0x6a660008        0x0 c:/mingw/bin/../lib/gcc/mingw32/4.5.0/libgcc.a(_divdi3.o)
 .data          0x6a660008        0x0 c:/mingw/bin/../lib/gcc/mingw32/4.5.0/libgcc.a(_moddi3.o)
 .data          0x6a660008        0x0 c:/mingw/bin/../lib/gcc/mingw32/4.5.0/libgcc.a(_ctors.o)
 .data          0x6a660008        0x0 c:/mingw/bin/../lib/gcc/mingw32/4.5.0/../../../libmoldname.a(dgzls00062.o)
 .data          0x6a660008        0x0 c:/mingw/bin/../lib/gcc/mingw32/4.5.0/../../../libmoldname.a(dgzlh.o)
 .data          0x6a660008        0x0 c:/mingw/bin/../lib/gcc/mingw32/4.5.0/../../../libmoldname.a(dgzlt.o)
 .data          0x6a660008        0x0 c:/mingw/bin/../lib/gcc/mingw32/4.5.0/../../../libmsvcrt.a(duyms00052.o)
 .data          0x6a660008        0x0 c:/mingw/bin/../lib/gcc/mingw32/4.5.0/../../../libmsvcrt.a(duyms00625.o)
 .data          0x6a660008        0x0 c:/mingw/bin/../lib/gcc/mingw32/4.5.0/../../../libmsvcrt.a(duyms00610.o)
 .data          0x6a660008        0x0 c:/mingw/bin/../lib/gcc/mingw32/4.5.0/../../../libmsvcrt.a(duyms00676.o)
 .data          0x6a660008        0x0 c:/mingw/bin/../lib/gcc/mingw32/4.5.0/../../../libmsvcrt.a(duyms00182.o)
 .data          0x6a660008        0x0 c:/mingw/bin/../lib/gcc/mingw32/4.5.0/../../../libmsvcrt.a(duyms00715.o)
 .data          0x6a660008        0x0 c:/mingw/bin/../lib/gcc/mingw32/4.5.0/../../../libmsvcrt.a(duyms00682.o)
 .data          0x6a660008        0x0 c:/mingw/bin/../lib/gcc/mingw32/4.5.0/../../../libmsvcrt.a(duyms00684.o)
 .data          0x6a660008        0x0 c:/mingw/bin/../lib/gcc/mingw32/4.5.0/../../../libmsvcrt.a(duyms00723.o)
 .data          0x6a660008        0x0 c:/mingw/bin/../lib/gcc/mingw32/4.5.0/../../../libmsvcrt.a(duyms00728.o)
 .data          0x6a660008        0x0 c:/mingw/bin/../lib/gcc/mingw32/4.5.0/../../../libmsvcrt.a(duyms00616.o)
 .data          0x6a660008        0x0 c:/mingw/bin/../lib/gcc/mingw32/4.5.0/../../../libmsvcrt.a(duyms00685.o)
 .data          0x6a660008        0x0 c:/mingw/bin/../lib/gcc/mingw32/4.5.0/../../../libmsvcrt.a(duyms00739.o)
 .data          0x6a660008        0x0 c:/mingw/bin/../lib/gcc/mingw32/4.5.0/../../../libmsvcrt.a(duyms00672.o)
 .data          0x6a660008        0x0 c:/mingw/bin/../lib/gcc/mingw32/4.5.0/../../../libmsvcrt.a(duyms00641.o)
 .data          0x6a660008        0x0 c:/mingw/bin/../lib/gcc/mingw32/4.5.0/../../../libmsvcrt.a(duyms00721.o)
 .data          0x6a660008        0x0 c:/mingw/bin/../lib/gcc/mingw32/4.5.0/../../../libmsvcrt.a(duyms00712.o)
 .data          0x6a660008        0x0 c:/mingw/bin/../lib/gcc/mingw32/4.5.0/../../../libmsvcrt.a(duyms00717.o)
 .data          0x6a660008        0x0 c:/mingw/bin/../lib/gcc/mingw32/4.5.0/../../../libmsvcrt.a(duyms00720.o)
 .data          0x6a660008        0x0 c:/mingw/bin/../lib/gcc/mingw32/4.5.0/../../../libmsvcrt.a(duyms00538.o)
 .data          0x6a660008        0x0 c:/mingw/bin/../lib/gcc/mingw32/4.5.0/../../../libmsvcrt.a(duyms00266.o)
 .data          0x6a660008        0x0 c:/mingw/bin/../lib/gcc/mingw32/4.5.0/../../../libmsvcrt.a(duyms00633.o)
 .data          0x6a660008        0x0 c:/mingw/bin/../lib/gcc/mingw32/4.5.0/../../../libmsvcrt.a(duyms00748.o)
 .data          0x6a660008        0x0 c:/mingw/bin/../lib/gcc/mingw32/4.5.0/../../../libmsvcrt.a(duyms00583.o)
 .data          0x6a660008        0x0 c:/mingw/bin/../lib/gcc/mingw32/4.5.0/../../../libmsvcrt.a(duyms00595.o)
 .data          0x6a660008        0x0 c:/mingw/bin/../lib/gcc/mingw32/4.5.0/../../../libmsvcrt.a(duymh.o)
 .data          0x6a660008        0x0 c:/mingw/bin/../lib/gcc/mingw32/4.5.0/../../../libmsvcrt.a(duymt.o)
 .data          0x6a660008        0x0 c:/mingw/bin/../lib/gcc/mingw32/4.5.0/../../../libkernel32.a(dkjes00337.o)
 .data          0x6a660008        0x0 c:/mingw/bin/../lib/gcc/mingw32/4.5.0/../../../libkernel32.a(dkjes00364.o)
 .data          0x6a660008        0x0 c:/mingw/bin/../lib/gcc/mingw32/4.5.0/../../../libkernel32.a(dkjes00327.o)
 .data          0x6a660008        0x0 c:/mingw/bin/../lib/gcc/mingw32/4.5.0/../../../libkernel32.a(dkjes00524.o)
 .data          0x6a660008        0x0 c:/mingw/bin/../lib/gcc/mingw32/4.5.0/../../../libkernel32.a(dkjes00214.o)
 .data          0x6a660008        0x0 c:/mingw/bin/../lib/gcc/mingw32/4.5.0/../../../libkernel32.a(dkjes00801.o)
 .data          0x6a660008        0x0 c:/mingw/bin/../lib/gcc/mingw32/4.5.0/../../../libkernel32.a(dkjes00798.o)
 .data          0x6a660008        0x0 c:/mingw/bin/../lib/gcc/mingw32/4.5.0/../../../libkernel32.a(dkjes00765.o)
 .data          0x6a660008        0x0 c:/mingw/bin/../lib/gcc/mingw32/4.5.0/../../../libkernel32.a(dkjes00325.o)
 .data          0x6a660008        0x0 c:/mingw/bin/../lib/gcc/mingw32/4.5.0/../../../libkernel32.a(dkjes00107.o)
 .data          0x6a660008        0x0 c:/mingw/bin/../lib/gcc/mingw32/4.5.0/../../../libkernel32.a(dkjes00492.o)
 .data          0x6a660008        0x0 c:/mingw/bin/../lib/gcc/mingw32/4.5.0/../../../libkernel32.a(dkjes00126.o)
 .data          0x6a660008        0x0 c:/mingw/bin/../lib/gcc/mingw32/4.5.0/../../../libkernel32.a(dkjes00523.o)
 .data          0x6a660008        0x0 c:/mingw/bin/../lib/gcc/mingw32/4.5.0/../../../libkernel32.a(dkjeh.o)
 .data          0x6a660008        0x0 c:/mingw/bin/../lib/gcc/mingw32/4.5.0/../../../libkernel32.a(dkjet.o)
 .data          0x6a660008        0x0 c:/mingw/bin/../lib/gcc/mingw32/4.5.0/crtend.o
 *(.data2)
 *(SORT(.data$*))
 *(.jcr)
 .jcr           0x6a660008        0x0 c:/mingw/bin/../lib/gcc/mingw32/4.5.0/crtbegin.o
 .jcr           0x6a660008        0x4 c:/mingw/bin/../lib/gcc/mingw32/4.5.0/crtend.o
                0x6a66000c                __data_end__ = .
 *(.data_cygwin_nocopy)

.rdata          0x6a661000     0x5800
 *(.rdata)
 .rdata         0x6a661000       0x64 c:/mingw/bin/../lib/gcc/mingw32/4.5.0/crtbegin.o
 *fill*         0x6a661064       0x1c 00
 .rdata         0x6a661080      0x100 mrp-marshal.o
 .rdata         0x6a661180      0x240 mrp-application.o
 .rdata         0x6a6613c0      0x1a0 mrp-assignment.o
 .rdata         0x6a661560      0x1c0 mrp-group-assignment.o
 .rdata         0x6a661720      0x240 mrp-qualification.o
 .rdata         0x6a661960      0x560 mrp-calendar.o
 .rdata         0x6a661ec0      0x11c mrp-day.o
 *fill*         0x6a661fdc        0x4 00
 .rdata         0x6a661fe0      0x380 mrp-group.o
 .rdata         0x6a662360      0x420 mrp-object.o
 .rdata         0x6a662780       0xec mrp-file-module.o
 *fill*         0x6a66286c       0x14 00
 .rdata         0x6a662880      0xd80 mrp-project.o
 .rdata         0x6a663600      0x700 mrp-resource.o
 .rdata         0x6a663d00      0x160 mrp-storage-module.o
 .rdata         0x6a663e60       0xa0 mrp-storage-module-factory.o
 .rdata         0x6a663f00      0x880 mrp-task-manager.o
 .rdata         0x6a664780     0x1020 mrp-task.o
 .rdata         0x6a6657a0      0x200 mrp-relation.o
 .rdata         0x6a6659a0      0x400 mrp-types.o
 .rdata         0x6a665da0      0x1b8 mrp-property.o
 .rdata         0x6a665f58      0x5c0 mrp-time.o
 .rdata         0x6a666518       0x10 mrp-error.o
 .rdata         0x6a666528       0xd0 mrp-paths-win32.o
 .rdata         0x6a6665f8       0x40 c:/mingw/bin/../lib/gcc/mingw32/4.5.0/../../../libmingw32.a(tlssup.o)
                0x6a666634                __dyn_tls_init_callback
 .rdata         0x6a666638       0xac c:/mingw/bin/../lib/gcc/mingw32/4.5.0/../../../libmingw32.a(pseudo-reloc.o)
 *(SORT(.rdata$*))
                0x6a6666e4                ___RUNTIME_PSEUDO_RELOC_LIST__ = .
                0x6a6666e4                __RUNTIME_PSEUDO_RELOC_LIST__ = .
 *(.rdata_runtime_pseudo_reloc)
                0x6a6666e4                ___RUNTIME_PSEUDO_RELOC_LIST_END__ = .
                0x6a6666e4                __RUNTIME_PSEUDO_RELOC_LIST_END__ = .

.eh_frame       0x6a667000      0x200
 *(.eh_frame)
 .eh_frame      0x6a667000        0x0 c:/mingw/bin/../lib/gcc/mingw32/4.5.0/crtbegin.o
 .eh_frame      0x6a667000       0x44 c:/mingw/bin/../lib/gcc/mingw32/4.5.0/libgcc.a(_divdi3.o)
 .eh_frame      0x6a667044       0x50 c:/mingw/bin/../lib/gcc/mingw32/4.5.0/libgcc.a(_moddi3.o)
 .eh_frame      0x6a667094        0x4 c:/mingw/bin/../lib/gcc/mingw32/4.5.0/crtend.o

.pdata
 *(.pdata)

.bss            0x6a668000      0x39c
                0x6a668000                __bss_start__ = .
 *(.bss)
 .bss           0x6a668000       0x20 c:/mingw/bin/../lib/gcc/mingw32/4.5.0/../../../dllcrt2.o
 .bss           0x6a668020       0x18 c:/mingw/bin/../lib/gcc/mingw32/4.5.0/crtbegin.o
 .bss           0x6a668038        0x0 mrp-marshal.o
 .bss           0x6a668038       0x10 mrp-application.o
 .bss           0x6a668048        0x8 mrp-assignment.o
 .bss           0x6a668050        0x8 mrp-group-assignment.o
 .bss           0x6a668058        0x8 mrp-qualification.o
 .bss           0x6a668060       0x10 mrp-calendar.o
 .bss           0x6a668070       0x10 mrp-day.o
 .bss           0x6a668080        0x8 mrp-group.o
 .bss           0x6a668088       0x10 mrp-object.o
 .bss           0x6a668098        0x0 mrp-file-module.o
 *fill*         0x6a668098        0x8 00
 .bss           0x6a6680a0       0x80 mrp-project.o
 .bss           0x6a668120       0x10 mrp-resource.o
 .bss           0x6a668130        0x8 mrp-storage-module.o
 .bss           0x6a668138        0xc mrp-storage-module-factory.o
 .bss           0x6a668144        0xc mrp-task-manager.o
                0x6a668144                PROJECTNUMBER
 .bss           0x6a668150       0x28 mrp-task.o
 .bss           0x6a668178        0xc mrp-relation.o
 .bss           0x6a668184       0x14 mrp-types.o
 .bss           0x6a668198        0x4 mrp-property.o
 *fill*         0x6a66819c        0x4 00
 .bss           0x6a6681a0      0x100 mrp-time.o
 .bss           0x6a6682a0        0x4 mrp-error.o
 .bss           0x6a6682a4       0x28 mrp-paths-win32.o
 *fill*         0x6a6682cc        0x4 00
 .bss           0x6a6682d0       0x20 c:/mingw/bin/../lib/gcc/mingw32/4.5.0/../../../libmingw32.a(tlssup.o)
                0x6a6682d0                _tls_index
                0x6a6682d4                mingw_initltsdrot_force
                0x6a6682d8                mingw_initltsdyn_force
                0x6a6682dc                mingw_initltssuo_force
 .bss           0x6a6682f0       0x10 c:/mingw/bin/../lib/gcc/mingw32/4.5.0/../../../libmingw32.a(pseudo-reloc.o)
 .bss           0x6a668300       0x10 c:/mingw/bin/../lib/gcc/mingw32/4.5.0/../../../libmingw32.a(gccmain.o)
 .bss           0x6a668310        0x0 c:/mingw/bin/../lib/gcc/mingw32/4.5.0/../../../libmingw32.a(dllmain.o)
 .bss           0x6a668310        0x4 c:/mingw/bin/../lib/gcc/mingw32/4.5.0/../../../libmingw32.a(crtst.o)
                0x6a668310                _CRT_MT
 *fill*         0x6a668314        0x4 00
 .bss           0x6a668318       0x40 c:/mingw/bin/../lib/gcc/mingw32/4.5.0/../../../libmingw32.a(tlsthrd.o)
 .bss           0x6a668358        0x4 c:/mingw/bin/../lib/gcc/mingw32/4.5.0/../../../libmingw32.a(pseudo-reloc-list.o)
 .bss           0x6a66835c        0x0 c:/mingw/bin/../lib/gcc/mingw32/4.5.0/libgcc.a(_chkstk.o)
 .bss           0x6a66835c        0x0 c:/mingw/bin/../lib/gcc/mingw32/4.5.0/libgcc.a(_divdi3.o)
 .bss           0x6a66835c        0x0 c:/mingw/bin/../lib/gcc/mingw32/4.5.0/libgcc.a(_moddi3.o)
 .bss           0x6a66835c        0x0 c:/mingw/bin/../lib/gcc/mingw32/4.5.0/libgcc.a(_ctors.o)
 .bss           0x6a66835c        0x0 c:/mingw/bin/../lib/gcc/mingw32/4.5.0/../../../libmoldname.a(dgzls00062.o)
 .bss           0x6a66835c        0x0 c:/mingw/bin/../lib/gcc/mingw32/4.5.0/../../../libmoldname.a(dgzlh.o)
 .bss           0x6a66835c        0x0 c:/mingw/bin/../lib/gcc/mingw32/4.5.0/../../../libmoldname.a(dgzlt.o)
 .bss           0x6a66835c        0x0 c:/mingw/bin/../lib/gcc/mingw32/4.5.0/../../../libmsvcrt.a(duyms00052.o)
 .bss           0x6a66835c        0x0 c:/mingw/bin/../lib/gcc/mingw32/4.5.0/../../../libmsvcrt.a(duyms00625.o)
 .bss           0x6a66835c        0x0 c:/mingw/bin/../lib/gcc/mingw32/4.5.0/../../../libmsvcrt.a(duyms00610.o)
 .bss           0x6a66835c        0x0 c:/mingw/bin/../lib/gcc/mingw32/4.5.0/../../../libmsvcrt.a(duyms00676.o)
 .bss           0x6a66835c        0x0 c:/mingw/bin/../lib/gcc/mingw32/4.5.0/../../../libmsvcrt.a(duyms00182.o)
 .bss           0x6a66835c        0x0 c:/mingw/bin/../lib/gcc/mingw32/4.5.0/../../../libmsvcrt.a(duyms00715.o)
 .bss           0x6a66835c        0x0 c:/mingw/bin/../lib/gcc/mingw32/4.5.0/../../../libmsvcrt.a(duyms00682.o)
 .bss           0x6a66835c        0x0 c:/mingw/bin/../lib/gcc/mingw32/4.5.0/../../../libmsvcrt.a(duyms00684.o)
 .bss           0x6a66835c        0x0 c:/mingw/bin/../lib/gcc/mingw32/4.5.0/../../../libmsvcrt.a(duyms00723.o)
 .bss           0x6a66835c        0x0 c:/mingw/bin/../lib/gcc/mingw32/4.5.0/../../../libmsvcrt.a(duyms00728.o)
 .bss           0x6a66835c        0x0 c:/mingw/bin/../lib/gcc/mingw32/4.5.0/../../../libmsvcrt.a(duyms00616.o)
 .bss           0x6a66835c        0x0 c:/mingw/bin/../lib/gcc/mingw32/4.5.0/../../../libmsvcrt.a(duyms00685.o)
 .bss           0x6a66835c        0x0 c:/mingw/bin/../lib/gcc/mingw32/4.5.0/../../../libmsvcrt.a(duyms00739.o)
 .bss           0x6a66835c        0x0 c:/mingw/bin/../lib/gcc/mingw32/4.5.0/../../../libmsvcrt.a(duyms00672.o)
 .bss           0x6a66835c        0x0 c:/mingw/bin/../lib/gcc/mingw32/4.5.0/../../../libmsvcrt.a(duyms00641.o)
 .bss           0x6a66835c        0x0 c:/mingw/bin/../lib/gcc/mingw32/4.5.0/../../../libmsvcrt.a(duyms00721.o)
 .bss           0x6a66835c        0x0 c:/mingw/bin/../lib/gcc/mingw32/4.5.0/../../../libmsvcrt.a(duyms00712.o)
 .bss           0x6a66835c        0x0 c:/mingw/bin/../lib/gcc/mingw32/4.5.0/../../../libmsvcrt.a(duyms00717.o)
 .bss           0x6a66835c        0x0 c:/mingw/bin/../lib/gcc/mingw32/4.5.0/../../../libmsvcrt.a(duyms00720.o)
 .bss           0x6a66835c        0x0 c:/mingw/bin/../lib/gcc/mingw32/4.5.0/../../../libmsvcrt.a(duyms00538.o)
 .bss           0x6a66835c        0x0 c:/mingw/bin/../lib/gcc/mingw32/4.5.0/../../../libmsvcrt.a(duyms00266.o)
 .bss           0x6a66835c        0x0 c:/mingw/bin/../lib/gcc/mingw32/4.5.0/../../../libmsvcrt.a(duyms00633.o)
 .bss           0x6a66835c        0x0 c:/mingw/bin/../lib/gcc/mingw32/4.5.0/../../../libmsvcrt.a(duyms00748.o)
 .bss           0x6a66835c        0x0 c:/mingw/bin/../lib/gcc/mingw32/4.5.0/../../../libmsvcrt.a(duyms00583.o)
 .bss           0x6a66835c        0x0 c:/mingw/bin/../lib/gcc/mingw32/4.5.0/../../../libmsvcrt.a(duyms00595.o)
 .bss           0x6a66835c        0x0 c:/mingw/bin/../lib/gcc/mingw32/4.5.0/../../../libmsvcrt.a(duymh.o)
 .bss           0x6a66835c        0x0 c:/mingw/bin/../lib/gcc/mingw32/4.5.0/../../../libmsvcrt.a(duymt.o)
 .bss           0x6a66835c        0x0 c:/mingw/bin/../lib/gcc/mingw32/4.5.0/../../../libkernel32.a(dkjes00337.o)
 .bss           0x6a66835c        0x0 c:/mingw/bin/../lib/gcc/mingw32/4.5.0/../../../libkernel32.a(dkjes00364.o)
 .bss           0x6a66835c        0x0 c:/mingw/bin/../lib/gcc/mingw32/4.5.0/../../../libkernel32.a(dkjes00327.o)
 .bss           0x6a66835c        0x0 c:/mingw/bin/../lib/gcc/mingw32/4.5.0/../../../libkernel32.a(dkjes00524.o)
 .bss           0x6a66835c        0x0 c:/mingw/bin/../lib/gcc/mingw32/4.5.0/../../../libkernel32.a(dkjes00214.o)
 .bss           0x6a66835c        0x0 c:/mingw/bin/../lib/gcc/mingw32/4.5.0/../../../libkernel32.a(dkjes00801.o)
 .bss           0x6a66835c        0x0 c:/mingw/bin/../lib/gcc/mingw32/4.5.0/../../../libkernel32.a(dkjes00798.o)
 .bss           0x6a66835c        0x0 c:/mingw/bin/../lib/gcc/mingw32/4.5.0/../../../libkernel32.a(dkjes00765.o)
 .bss           0x6a66835c        0x0 c:/mingw/bin/../lib/gcc/mingw32/4.5.0/../../../libkernel32.a(dkjes00325.o)
 .bss           0x6a66835c        0x0 c:/mingw/bin/../lib/gcc/mingw32/4.5.0/../../../libkernel32.a(dkjes00107.o)
 .bss           0x6a66835c        0x0 c:/mingw/bin/../lib/gcc/mingw32/4.5.0/../../../libkernel32.a(dkjes00492.o)
 .bss           0x6a66835c        0x0 c:/mingw/bin/../lib/gcc/mingw32/4.5.0/../../../libkernel32.a(dkjes00126.o)
 .bss           0x6a66835c        0x0 c:/mingw/bin/../lib/gcc/mingw32/4.5.0/../../../libkernel32.a(dkjes00523.o)
 .bss           0x6a66835c        0x0 c:/mingw/bin/../lib/gcc/mingw32/4.5.0/../../../libkernel32.a(dkjeh.o)
 .bss           0x6a66835c        0x0 c:/mingw/bin/../lib/gcc/mingw32/4.5.0/../../../libkernel32.a(dkjet.o)
 .bss           0x6a66835c        0x0 c:/mingw/bin/../lib/gcc/mingw32/4.5.0/crtend.o
 *(COMMON)
 COMMON         0x6a66835c       0x30 c:/mingw/bin/../lib/gcc/mingw32/4.5.0/../../../libmingw32.a(tlssup.o)
                0x6a66835c                __mingw_gMTKeyDtor
                0x6a66836c                __mingw_gMTRemoveKeyDtor
                0x6a66837c                __mingw_usemthread_dll
 COMMON         0x6a66838c       0x10 c:/mingw/bin/../lib/gcc/mingw32/4.5.0/libgcc.a(_ctors.o)
                0x6a66839c                __bss_end__ = .

.edata          0x6a669000     0x3600
 *(.edata)
 .edata         0x6a669000     0x3512 dll stuff

/DISCARD/
 *(.debug$S)
 *(.debug$T)
 *(.debug$F)
 *(.drectve)
 *(.note.GNU-stack)
 *(.gnu.lto_*)

.idata          0x6a66d000     0x1e00
 SORT(*)(.idata$2)
 .idata$2       0x6a66d000       0x14 C:/MinGW/msys/1.0/dev/lib/libglib-2.0.dll.a(d000000.o)
                0x6a66d000                _head_libglib_2_0_0_dll
 .idata$2       0x6a66d014       0x14 C:/MinGW/msys/1.0/dev/lib/libgmodule-2.0.dll.a(d000000.o)
                0x6a66d014                _head_libgmodule_2_0_0_dll
 .idata$2       0x6a66d028       0x14 C:/MinGW/msys/1.0/dev/lib/libgobject-2.0.dll.a(d000000.o)
                0x6a66d028                _head_libgobject_2_0_0_dll
 .idata$2       0x6a66d03c       0x14 C:/MinGW/msys/1.0/dev/lib/libintl.dll.a(d000000.o)
                0x6a66d03c                _head_intl_dll
 .idata$2       0x6a66d050       0x14 c:/mingw/bin/../lib/gcc/mingw32/4.5.0/../../../libkernel32.a(dkjeh.o)
                0x6a66d050                _head_libkernel32_a
 .idata$2       0x6a66d064       0x14 c:/mingw/bin/../lib/gcc/mingw32/4.5.0/../../../libmoldname.a(dgzlh.o)
                0x6a66d064                _head_libmoldname_a
 .idata$2       0x6a66d078       0x14 c:/mingw/bin/../lib/gcc/mingw32/4.5.0/../../../libmsvcrt.a(duymh.o)
                0x6a66d078                _head_libmsvcrt_a
 SORT(*)(.idata$3)
                0x6a66d08c        0x4 LONG 0x0
                0x6a66d090        0x4 LONG 0x0
                0x6a66d094        0x4 LONG 0x0
                0x6a66d098        0x4 LONG 0x0
                0x6a66d09c        0x4 LONG 0x0
 SORT(*)(.idata$4)
 .idata$4       0x6a66d0a0        0x0 C:/MinGW/msys/1.0/dev/lib/libglib-2.0.dll.a(d000000.o)
 .idata$4       0x6a66d0a0        0x4 C:/MinGW/msys/1.0/dev/lib/libglib-2.0.dll.a(d000024.o)
 .idata$4       0x6a66d0a4        0x4 C:/MinGW/msys/1.0/dev/lib/libglib-2.0.dll.a(d000036.o)
 .idata$4       0x6a66d0a8        0x4 C:/MinGW/msys/1.0/dev/lib/libglib-2.0.dll.a(d000040.o)
 .idata$4       0x6a66d0ac        0x4 C:/MinGW/msys/1.0/dev/lib/libglib-2.0.dll.a(d000126.o)
 .idata$4       0x6a66d0b0        0x4 C:/MinGW/msys/1.0/dev/lib/libglib-2.0.dll.a(d000193.o)
 .idata$4       0x6a66d0b4        0x4 C:/MinGW/msys/1.0/dev/lib/libglib-2.0.dll.a(d000194.o)
 .idata$4       0x6a66d0b8        0x4 C:/MinGW/msys/1.0/dev/lib/libglib-2.0.dll.a(d000195.o)
 .idata$4       0x6a66d0bc        0x4 C:/MinGW/msys/1.0/dev/lib/libglib-2.0.dll.a(d000197.o)
 .idata$4       0x6a66d0c0        0x4 C:/MinGW/msys/1.0/dev/lib/libglib-2.0.dll.a(d000198.o)
 .idata$4       0x6a66d0c4        0x4 C:/MinGW/msys/1.0/dev/lib/libglib-2.0.dll.a(d000199.o)
 .idata$4       0x6a66d0c8        0x4 C:/MinGW/msys/1.0/dev/lib/libglib-2.0.dll.a(d000201.o)
 .idata$4       0x6a66d0cc        0x4 C:/MinGW/msys/1.0/dev/lib/libglib-2.0.dll.a(d000205.o)
 .idata$4       0x6a66d0d0        0x4 C:/MinGW/msys/1.0/dev/lib/libglib-2.0.dll.a(d000208.o)
 .idata$4       0x6a66d0d4        0x4 C:/MinGW/msys/1.0/dev/lib/libglib-2.0.dll.a(d000211.o)
 .idata$4       0x6a66d0d8        0x4 C:/MinGW/msys/1.0/dev/lib/libglib-2.0.dll.a(d000212.o)
 .idata$4       0x6a66d0dc        0x4 C:/MinGW/msys/1.0/dev/lib/libglib-2.0.dll.a(d000220.o)
 .idata$4       0x6a66d0e0        0x4 C:/MinGW/msys/1.0/dev/lib/libglib-2.0.dll.a(d000221.o)
 .idata$4       0x6a66d0e4        0x4 C:/MinGW/msys/1.0/dev/lib/libglib-2.0.dll.a(d000223.o)
 .idata$4       0x6a66d0e8        0x4 C:/MinGW/msys/1.0/dev/lib/libglib-2.0.dll.a(d000229.o)
 .idata$4       0x6a66d0ec        0x4 C:/MinGW/msys/1.0/dev/lib/libglib-2.0.dll.a(d000230.o)
 .idata$4       0x6a66d0f0        0x4 C:/MinGW/msys/1.0/dev/lib/libglib-2.0.dll.a(d000231.o)
 .idata$4       0x6a66d0f4        0x4 C:/MinGW/msys/1.0/dev/lib/libglib-2.0.dll.a(d000232.o)
 .idata$4       0x6a66d0f8        0x4 C:/MinGW/msys/1.0/dev/lib/libglib-2.0.dll.a(d000290.o)
 .idata$4       0x6a66d0fc        0x4 C:/MinGW/msys/1.0/dev/lib/libglib-2.0.dll.a(d000291.o)
 .idata$4       0x6a66d100        0x4 C:/MinGW/msys/1.0/dev/lib/libglib-2.0.dll.a(d000292.o)
 .idata$4       0x6a66d104        0x4 C:/MinGW/msys/1.0/dev/lib/libglib-2.0.dll.a(d000309.o)
 .idata$4       0x6a66d108        0x4 C:/MinGW/msys/1.0/dev/lib/libglib-2.0.dll.a(d000324.o)
 .idata$4       0x6a66d10c        0x4 C:/MinGW/msys/1.0/dev/lib/libglib-2.0.dll.a(d000345.o)
 .idata$4       0x6a66d110        0x4 C:/MinGW/msys/1.0/dev/lib/libglib-2.0.dll.a(d000346.o)
 .idata$4       0x6a66d114        0x4 C:/MinGW/msys/1.0/dev/lib/libglib-2.0.dll.a(d000348.o)
 .idata$4       0x6a66d118        0x4 C:/MinGW/msys/1.0/dev/lib/libglib-2.0.dll.a(d000353.o)
 .idata$4       0x6a66d11c        0x4 C:/MinGW/msys/1.0/dev/lib/libglib-2.0.dll.a(d000359.o)
 .idata$4       0x6a66d120        0x4 C:/MinGW/msys/1.0/dev/lib/libglib-2.0.dll.a(d000361.o)
 .idata$4       0x6a66d124        0x4 C:/MinGW/msys/1.0/dev/lib/libglib-2.0.dll.a(d000362.o)
 .idata$4       0x6a66d128        0x4 C:/MinGW/msys/1.0/dev/lib/libglib-2.0.dll.a(d000364.o)
 .idata$4       0x6a66d12c        0x4 C:/MinGW/msys/1.0/dev/lib/libglib-2.0.dll.a(d000368.o)
 .idata$4       0x6a66d130        0x4 C:/MinGW/msys/1.0/dev/lib/libglib-2.0.dll.a(d000505.o)
 .idata$4       0x6a66d134        0x4 C:/MinGW/msys/1.0/dev/lib/libglib-2.0.dll.a(d000506.o)
 .idata$4       0x6a66d138        0x4 C:/MinGW/msys/1.0/dev/lib/libglib-2.0.dll.a(d000507.o)
 .idata$4       0x6a66d13c        0x4 C:/MinGW/msys/1.0/dev/lib/libglib-2.0.dll.a(d000509.o)
 .idata$4       0x6a66d140        0x4 C:/MinGW/msys/1.0/dev/lib/libglib-2.0.dll.a(d000512.o)
 .idata$4       0x6a66d144        0x4 C:/MinGW/msys/1.0/dev/lib/libglib-2.0.dll.a(d000513.o)
 .idata$4       0x6a66d148        0x4 C:/MinGW/msys/1.0/dev/lib/libglib-2.0.dll.a(d000515.o)
 .idata$4       0x6a66d14c        0x4 C:/MinGW/msys/1.0/dev/lib/libglib-2.0.dll.a(d000521.o)
 .idata$4       0x6a66d150        0x4 C:/MinGW/msys/1.0/dev/lib/libglib-2.0.dll.a(d000523.o)
 .idata$4       0x6a66d154        0x4 C:/MinGW/msys/1.0/dev/lib/libglib-2.0.dll.a(d000527.o)
 .idata$4       0x6a66d158        0x4 C:/MinGW/msys/1.0/dev/lib/libglib-2.0.dll.a(d000529.o)
 .idata$4       0x6a66d15c        0x4 C:/MinGW/msys/1.0/dev/lib/libglib-2.0.dll.a(d000531.o)
 .idata$4       0x6a66d160        0x4 C:/MinGW/msys/1.0/dev/lib/libglib-2.0.dll.a(d000532.o)
 .idata$4       0x6a66d164        0x4 C:/MinGW/msys/1.0/dev/lib/libglib-2.0.dll.a(d000533.o)
 .idata$4       0x6a66d168        0x4 C:/MinGW/msys/1.0/dev/lib/libglib-2.0.dll.a(d000537.o)
 .idata$4       0x6a66d16c        0x4 C:/MinGW/msys/1.0/dev/lib/libglib-2.0.dll.a(d000538.o)
 .idata$4       0x6a66d170        0x4 C:/MinGW/msys/1.0/dev/lib/libglib-2.0.dll.a(d000581.o)
 .idata$4       0x6a66d174        0x4 C:/MinGW/msys/1.0/dev/lib/libglib-2.0.dll.a(d000582.o)
 .idata$4       0x6a66d178        0x4 C:/MinGW/msys/1.0/dev/lib/libglib-2.0.dll.a(d000583.o)
 .idata$4       0x6a66d17c        0x4 C:/MinGW/msys/1.0/dev/lib/libglib-2.0.dll.a(d000584.o)
 .idata$4       0x6a66d180        0x4 C:/MinGW/msys/1.0/dev/lib/libglib-2.0.dll.a(d000638.o)
 .idata$4       0x6a66d184        0x4 C:/MinGW/msys/1.0/dev/lib/libglib-2.0.dll.a(d000642.o)
 .idata$4       0x6a66d188        0x4 C:/MinGW/msys/1.0/dev/lib/libglib-2.0.dll.a(d000643.o)
 .idata$4       0x6a66d18c        0x4 C:/MinGW/msys/1.0/dev/lib/libglib-2.0.dll.a(d000648.o)
 .idata$4       0x6a66d190        0x4 C:/MinGW/msys/1.0/dev/lib/libglib-2.0.dll.a(d000649.o)
 .idata$4       0x6a66d194        0x4 C:/MinGW/msys/1.0/dev/lib/libglib-2.0.dll.a(d000650.o)
 .idata$4       0x6a66d198        0x4 C:/MinGW/msys/1.0/dev/lib/libglib-2.0.dll.a(d000652.o)
 .idata$4       0x6a66d19c        0x4 C:/MinGW/msys/1.0/dev/lib/libglib-2.0.dll.a(d000655.o)
 .idata$4       0x6a66d1a0        0x4 C:/MinGW/msys/1.0/dev/lib/libglib-2.0.dll.a(d000657.o)
 .idata$4       0x6a66d1a4        0x4 C:/MinGW/msys/1.0/dev/lib/libglib-2.0.dll.a(d000658.o)
 .idata$4       0x6a66d1a8        0x4 C:/MinGW/msys/1.0/dev/lib/libglib-2.0.dll.a(d000660.o)
 .idata$4       0x6a66d1ac        0x4 C:/MinGW/msys/1.0/dev/lib/libglib-2.0.dll.a(d000663.o)
 .idata$4       0x6a66d1b0        0x4 C:/MinGW/msys/1.0/dev/lib/libglib-2.0.dll.a(d000664.o)
 .idata$4       0x6a66d1b4        0x4 C:/MinGW/msys/1.0/dev/lib/libglib-2.0.dll.a(d000712.o)
 .idata$4       0x6a66d1b8        0x4 C:/MinGW/msys/1.0/dev/lib/libglib-2.0.dll.a(d000714.o)
 .idata$4       0x6a66d1bc        0x4 C:/MinGW/msys/1.0/dev/lib/libglib-2.0.dll.a(d000718.o)
 .idata$4       0x6a66d1c0        0x4 C:/MinGW/msys/1.0/dev/lib/libglib-2.0.dll.a(d000720.o)
 .idata$4       0x6a66d1c4        0x4 C:/MinGW/msys/1.0/dev/lib/libglib-2.0.dll.a(d000721.o)
 .idata$4       0x6a66d1c8        0x4 C:/MinGW/msys/1.0/dev/lib/libglib-2.0.dll.a(d000732.o)
 .idata$4       0x6a66d1cc        0x4 C:/MinGW/msys/1.0/dev/lib/libglib-2.0.dll.a(d000736.o)
 .idata$4       0x6a66d1d0        0x4 C:/MinGW/msys/1.0/dev/lib/libglib-2.0.dll.a(d000737.o)
 .idata$4       0x6a66d1d4        0x4 C:/MinGW/msys/1.0/dev/lib/libglib-2.0.dll.a(d000795.o)
 .idata$4       0x6a66d1d8        0x4 C:/MinGW/msys/1.0/dev/lib/libglib-2.0.dll.a(d000832.o)
 .idata$4       0x6a66d1dc        0x4 C:/MinGW/msys/1.0/dev/lib/libglib-2.0.dll.a(d000891.o)
 .idata$4       0x6a66d1e0        0x4 C:/MinGW/msys/1.0/dev/lib/libglib-2.0.dll.a(d000896.o)
 .idata$4       0x6a66d1e4        0x4 C:/MinGW/msys/1.0/dev/lib/libglib-2.0.dll.a(d000996.o)
 .idata$4       0x6a66d1e8        0x4 C:/MinGW/msys/1.0/dev/lib/libglib-2.0.dll.a(d000998.o)
 .idata$4       0x6a66d1ec        0x4 C:/MinGW/msys/1.0/dev/lib/libglib-2.0.dll.a(d000999.o)
 .idata$4       0x6a66d1f0        0x4 C:/MinGW/msys/1.0/dev/lib/libglib-2.0.dll.a(d001004.o)
 .idata$4       0x6a66d1f4        0x4 C:/MinGW/msys/1.0/dev/lib/libglib-2.0.dll.a(d001006.o)
 .idata$4       0x6a66d1f8        0x4 C:/MinGW/msys/1.0/dev/lib/libglib-2.0.dll.a(d001009.o)
 .idata$4       0x6a66d1fc        0x4 C:/MinGW/msys/1.0/dev/lib/libglib-2.0.dll.a(d001010.o)
 .idata$4       0x6a66d200        0x4 C:/MinGW/msys/1.0/dev/lib/libglib-2.0.dll.a(d001035.o)
 .idata$4       0x6a66d204        0x4 C:/MinGW/msys/1.0/dev/lib/libglib-2.0.dll.a(d001038.o)
 .idata$4       0x6a66d208        0x4 C:/MinGW/msys/1.0/dev/lib/libglib-2.0.dll.a(d001041.o)
 .idata$4       0x6a66d20c        0x4 C:/MinGW/msys/1.0/dev/lib/libglib-2.0.dll.a(d001212.o)
 .idata$4       0x6a66d210        0x4 C:/MinGW/msys/1.0/dev/lib/libglib-2.0.dll.a(d001222.o)
 .idata$4       0x6a66d214        0x4 C:/MinGW/msys/1.0/dev/lib/libglib-2.0.dll.a(d001237.o)
 .idata$4       0x6a66d218        0x4 C:/MinGW/msys/1.0/dev/lib/libglib-2.0.dll.a(d001410.o)
 .idata$4       0x6a66d21c        0x4 C:/MinGW/msys/1.0/dev/lib/libglib-2.0.dll.a(d001426.o)
 .idata$4       0x6a66d220        0x0 C:/MinGW/msys/1.0/dev/lib/libgmodule-2.0.dll.a(d000000.o)
 .idata$4       0x6a66d220        0x4 C:/MinGW/msys/1.0/dev/lib/libgmodule-2.0.dll.a(d000001.o)
 .idata$4       0x6a66d224        0x4 C:/MinGW/msys/1.0/dev/lib/libgmodule-2.0.dll.a(d000002.o)
 .idata$4       0x6a66d228        0x4 C:/MinGW/msys/1.0/dev/lib/libgmodule-2.0.dll.a(d000003.o)
 .idata$4       0x6a66d22c        0x4 C:/MinGW/msys/1.0/dev/lib/libgmodule-2.0.dll.a(d000006.o)
 .idata$4       0x6a66d230        0x4 C:/MinGW/msys/1.0/dev/lib/libgmodule-2.0.dll.a(d000008.o)
 .idata$4       0x6a66d234        0x4 C:/MinGW/msys/1.0/dev/lib/libgmodule-2.0.dll.a(d000009.o)
 .idata$4       0x6a66d238        0x0 C:/MinGW/msys/1.0/dev/lib/libgobject-2.0.dll.a(d000000.o)
 .idata$4       0x6a66d238        0x4 C:/MinGW/msys/1.0/dev/lib/libgobject-2.0.dll.a(d000011.o)
 .idata$4       0x6a66d23c        0x4 C:/MinGW/msys/1.0/dev/lib/libgobject-2.0.dll.a(d000016.o)
 .idata$4       0x6a66d240        0x4 C:/MinGW/msys/1.0/dev/lib/libgobject-2.0.dll.a(d000025.o)
 .idata$4       0x6a66d244        0x4 C:/MinGW/msys/1.0/dev/lib/libgobject-2.0.dll.a(d000027.o)
 .idata$4       0x6a66d248        0x4 C:/MinGW/msys/1.0/dev/lib/libgobject-2.0.dll.a(d000034.o)
 .idata$4       0x6a66d24c        0x4 C:/MinGW/msys/1.0/dev/lib/libgobject-2.0.dll.a(d000060.o)
 .idata$4       0x6a66d250        0x4 C:/MinGW/msys/1.0/dev/lib/libgobject-2.0.dll.a(d000078.o)
 .idata$4       0x6a66d254        0x4 C:/MinGW/msys/1.0/dev/lib/libgobject-2.0.dll.a(d000080.o)
 .idata$4       0x6a66d258        0x4 C:/MinGW/msys/1.0/dev/lib/libgobject-2.0.dll.a(d000088.o)
 .idata$4       0x6a66d25c        0x4 C:/MinGW/msys/1.0/dev/lib/libgobject-2.0.dll.a(d000089.o)
 .idata$4       0x6a66d260        0x4 C:/MinGW/msys/1.0/dev/lib/libgobject-2.0.dll.a(d000090.o)
 .idata$4       0x6a66d264        0x4 C:/MinGW/msys/1.0/dev/lib/libgobject-2.0.dll.a(d000098.o)
 .idata$4       0x6a66d268        0x4 C:/MinGW/msys/1.0/dev/lib/libgobject-2.0.dll.a(d000101.o)
 .idata$4       0x6a66d26c        0x4 C:/MinGW/msys/1.0/dev/lib/libgobject-2.0.dll.a(d000103.o)
 .idata$4       0x6a66d270        0x4 C:/MinGW/msys/1.0/dev/lib/libgobject-2.0.dll.a(d000108.o)
 .idata$4       0x6a66d274        0x4 C:/MinGW/msys/1.0/dev/lib/libgobject-2.0.dll.a(d000111.o)
 .idata$4       0x6a66d278        0x4 C:/MinGW/msys/1.0/dev/lib/libgobject-2.0.dll.a(d000118.o)
 .idata$4       0x6a66d27c        0x4 C:/MinGW/msys/1.0/dev/lib/libgobject-2.0.dll.a(d000122.o)
 .idata$4       0x6a66d280        0x4 C:/MinGW/msys/1.0/dev/lib/libgobject-2.0.dll.a(d000123.o)
 .idata$4       0x6a66d284        0x4 C:/MinGW/msys/1.0/dev/lib/libgobject-2.0.dll.a(d000126.o)
 .idata$4       0x6a66d288        0x4 C:/MinGW/msys/1.0/dev/lib/libgobject-2.0.dll.a(d000128.o)
 .idata$4       0x6a66d28c        0x4 C:/MinGW/msys/1.0/dev/lib/libgobject-2.0.dll.a(d000132.o)
 .idata$4       0x6a66d290        0x4 C:/MinGW/msys/1.0/dev/lib/libgobject-2.0.dll.a(d000135.o)
 .idata$4       0x6a66d294        0x4 C:/MinGW/msys/1.0/dev/lib/libgobject-2.0.dll.a(d000138.o)
 .idata$4       0x6a66d298        0x4 C:/MinGW/msys/1.0/dev/lib/libgobject-2.0.dll.a(d000139.o)
 .idata$4       0x6a66d29c        0x4 C:/MinGW/msys/1.0/dev/lib/libgobject-2.0.dll.a(d000142.o)
 .idata$4       0x6a66d2a0        0x4 C:/MinGW/msys/1.0/dev/lib/libgobject-2.0.dll.a(d000143.o)
 .idata$4       0x6a66d2a4        0x4 C:/MinGW/msys/1.0/dev/lib/libgobject-2.0.dll.a(d000145.o)
 .idata$4       0x6a66d2a8        0x4 C:/MinGW/msys/1.0/dev/lib/libgobject-2.0.dll.a(d000146.o)
 .idata$4       0x6a66d2ac        0x4 C:/MinGW/msys/1.0/dev/lib/libgobject-2.0.dll.a(d000147.o)
 .idata$4       0x6a66d2b0        0x4 C:/MinGW/msys/1.0/dev/lib/libgobject-2.0.dll.a(d000148.o)
 .idata$4       0x6a66d2b4        0x4 C:/MinGW/msys/1.0/dev/lib/libgobject-2.0.dll.a(d000149.o)
 .idata$4       0x6a66d2b8        0x4 C:/MinGW/msys/1.0/dev/lib/libgobject-2.0.dll.a(d000151.o)
 .idata$4       0x6a66d2bc        0x4 C:/MinGW/msys/1.0/dev/lib/libgobject-2.0.dll.a(d000152.o)
 .idata$4       0x6a66d2c0        0x4 C:/MinGW/msys/1.0/dev/lib/libgobject-2.0.dll.a(d000155.o)
 .idata$4       0x6a66d2c4        0x4 C:/MinGW/msys/1.0/dev/lib/libgobject-2.0.dll.a(d000162.o)
 .idata$4       0x6a66d2c8        0x4 C:/MinGW/msys/1.0/dev/lib/libgobject-2.0.dll.a(d000163.o)
 .idata$4       0x6a66d2cc        0x4 C:/MinGW/msys/1.0/dev/lib/libgobject-2.0.dll.a(d000168.o)
 .idata$4       0x6a66d2d0        0x4 C:/MinGW/msys/1.0/dev/lib/libgobject-2.0.dll.a(d000180.o)
 .idata$4       0x6a66d2d4        0x4 C:/MinGW/msys/1.0/dev/lib/libgobject-2.0.dll.a(d000181.o)
 .idata$4       0x6a66d2d8        0x4 C:/MinGW/msys/1.0/dev/lib/libgobject-2.0.dll.a(d000182.o)
 .idata$4       0x6a66d2dc        0x4 C:/MinGW/msys/1.0/dev/lib/libgobject-2.0.dll.a(d000183.o)
 .idata$4       0x6a66d2e0        0x4 C:/MinGW/msys/1.0/dev/lib/libgobject-2.0.dll.a(d000192.o)
 .idata$4       0x6a66d2e4        0x4 C:/MinGW/msys/1.0/dev/lib/libgobject-2.0.dll.a(d000194.o)
 .idata$4       0x6a66d2e8        0x4 C:/MinGW/msys/1.0/dev/lib/libgobject-2.0.dll.a(d000195.o)
 .idata$4       0x6a66d2ec        0x4 C:/MinGW/msys/1.0/dev/lib/libgobject-2.0.dll.a(d000200.o)
 .idata$4       0x6a66d2f0        0x4 C:/MinGW/msys/1.0/dev/lib/libgobject-2.0.dll.a(d000220.o)
 .idata$4       0x6a66d2f4        0x4 C:/MinGW/msys/1.0/dev/lib/libgobject-2.0.dll.a(d000223.o)
 .idata$4       0x6a66d2f8        0x4 C:/MinGW/msys/1.0/dev/lib/libgobject-2.0.dll.a(d000224.o)
 .idata$4       0x6a66d2fc        0x4 C:/MinGW/msys/1.0/dev/lib/libgobject-2.0.dll.a(d000232.o)
 .idata$4       0x6a66d300        0x4 C:/MinGW/msys/1.0/dev/lib/libgobject-2.0.dll.a(d000259.o)
 .idata$4       0x6a66d304        0x4 C:/MinGW/msys/1.0/dev/lib/libgobject-2.0.dll.a(d000263.o)
 .idata$4       0x6a66d308        0x4 C:/MinGW/msys/1.0/dev/lib/libgobject-2.0.dll.a(d000264.o)
 .idata$4       0x6a66d30c        0x4 C:/MinGW/msys/1.0/dev/lib/libgobject-2.0.dll.a(d000265.o)
 .idata$4       0x6a66d310        0x4 C:/MinGW/msys/1.0/dev/lib/libgobject-2.0.dll.a(d000266.o)
 .idata$4       0x6a66d314        0x4 C:/MinGW/msys/1.0/dev/lib/libgobject-2.0.dll.a(d000280.o)
 .idata$4       0x6a66d318        0x4 C:/MinGW/msys/1.0/dev/lib/libgobject-2.0.dll.a(d000286.o)
 .idata$4       0x6a66d31c        0x4 C:/MinGW/msys/1.0/dev/lib/libgobject-2.0.dll.a(d000298.o)
 .idata$4       0x6a66d320        0x4 C:/MinGW/msys/1.0/dev/lib/libgobject-2.0.dll.a(d000302.o)
 .idata$4       0x6a66d324        0x4 C:/MinGW/msys/1.0/dev/lib/libgobject-2.0.dll.a(d000305.o)
 .idata$4       0x6a66d328        0x4 C:/MinGW/msys/1.0/dev/lib/libgobject-2.0.dll.a(d000306.o)
 .idata$4       0x6a66d32c        0x4 C:/MinGW/msys/1.0/dev/lib/libgobject-2.0.dll.a(d000309.o)
 .idata$4       0x6a66d330        0x4 C:/MinGW/msys/1.0/dev/lib/libgobject-2.0.dll.a(d000311.o)
 .idata$4       0x6a66d334        0x4 C:/MinGW/msys/1.0/dev/lib/libgobject-2.0.dll.a(d000313.o)
 .idata$4       0x6a66d338        0x4 C:/MinGW/msys/1.0/dev/lib/libgobject-2.0.dll.a(d000315.o)
 .idata$4       0x6a66d33c        0x4 C:/MinGW/msys/1.0/dev/lib/libgobject-2.0.dll.a(d000316.o)
 .idata$4       0x6a66d340        0x4 C:/MinGW/msys/1.0/dev/lib/libgobject-2.0.dll.a(d000318.o)
 .idata$4       0x6a66d344        0x4 C:/MinGW/msys/1.0/dev/lib/libgobject-2.0.dll.a(d000319.o)
 .idata$4       0x6a66d348        0x4 C:/MinGW/msys/1.0/dev/lib/libgobject-2.0.dll.a(d000320.o)
 .idata$4       0x6a66d34c        0x4 C:/MinGW/msys/1.0/dev/lib/libgobject-2.0.dll.a(d000326.o)
 .idata$4       0x6a66d350        0x4 C:/MinGW/msys/1.0/dev/lib/libgobject-2.0.dll.a(d000327.o)
 .idata$4       0x6a66d354        0x4 C:/MinGW/msys/1.0/dev/lib/libgobject-2.0.dll.a(d000330.o)
 .idata$4       0x6a66d358        0x4 C:/MinGW/msys/1.0/dev/lib/libgobject-2.0.dll.a(d000331.o)
 .idata$4       0x6a66d35c        0x4 C:/MinGW/msys/1.0/dev/lib/libgobject-2.0.dll.a(d000335.o)
 .idata$4       0x6a66d360        0x4 C:/MinGW/msys/1.0/dev/lib/libgobject-2.0.dll.a(d000337.o)
 .idata$4       0x6a66d364        0x4 C:/MinGW/msys/1.0/dev/lib/libgobject-2.0.dll.a(d000340.o)
 .idata$4       0x6a66d368        0x4 C:/MinGW/msys/1.0/dev/lib/libgobject-2.0.dll.a(d000342.o)
 .idata$4       0x6a66d36c        0x4 C:/MinGW/msys/1.0/dev/lib/libgobject-2.0.dll.a(d000343.o)
 .idata$4       0x6a66d370        0x4 C:/MinGW/msys/1.0/dev/lib/libgobject-2.0.dll.a(d000347.o)
 .idata$4       0x6a66d374        0x4 C:/MinGW/msys/1.0/dev/lib/libgobject-2.0.dll.a(d000350.o)
 .idata$4       0x6a66d378        0x4 C:/MinGW/msys/1.0/dev/lib/libgobject-2.0.dll.a(d000365.o)
 .idata$4       0x6a66d37c        0x4 C:/MinGW/msys/1.0/dev/lib/libgobject-2.0.dll.a(d000368.o)
 .idata$4       0x6a66d380        0x0 C:/MinGW/msys/1.0/dev/lib/libintl.dll.a(d000000.o)
 .idata$4       0x6a66d380        0x4 C:/MinGW/msys/1.0/dev/lib/libintl.dll.a(d000010.o)
 .idata$4       0x6a66d384        0x4 C:/MinGW/msys/1.0/dev/lib/libintl.dll.a(d000011.o)
 .idata$4       0x6a66d388        0x4 C:/MinGW/msys/1.0/dev/lib/libintl.dll.a(d000017.o)
 .idata$4       0x6a66d38c        0x4 C:/MinGW/msys/1.0/dev/lib/libintl.dll.a(d000019.o)
 .idata$4       0x6a66d390        0x4 C:/MinGW/msys/1.0/dev/lib/libintl.dll.a(d000022.o)
 .idata$4       0x6a66d394        0x4 C:/MinGW/msys/1.0/dev/lib/libintl.dll.a(d000031.o)
 .idata$4       0x6a66d398        0x0 c:/mingw/bin/../lib/gcc/mingw32/4.5.0/../../../libkernel32.a(dkjeh.o)
 .idata$4       0x6a66d398        0x4 c:/mingw/bin/../lib/gcc/mingw32/4.5.0/../../../libkernel32.a(dkjes00107.o)
 .idata$4       0x6a66d39c        0x4 c:/mingw/bin/../lib/gcc/mingw32/4.5.0/../../../libkernel32.a(dkjes00126.o)
 .idata$4       0x6a66d3a0        0x4 c:/mingw/bin/../lib/gcc/mingw32/4.5.0/../../../libkernel32.a(dkjes00214.o)
 .idata$4       0x6a66d3a4        0x4 c:/mingw/bin/../lib/gcc/mingw32/4.5.0/../../../libkernel32.a(dkjes00325.o)
 .idata$4       0x6a66d3a8        0x4 c:/mingw/bin/../lib/gcc/mingw32/4.5.0/../../../libkernel32.a(dkjes00327.o)
 .idata$4       0x6a66d3ac        0x4 c:/mingw/bin/../lib/gcc/mingw32/4.5.0/../../../libkernel32.a(dkjes00337.o)
 .idata$4       0x6a66d3b0        0x4 c:/mingw/bin/../lib/gcc/mingw32/4.5.0/../../../libkernel32.a(dkjes00364.o)
 .idata$4       0x6a66d3b4        0x4 c:/mingw/bin/../lib/gcc/mingw32/4.5.0/../../../libkernel32.a(dkjes00492.o)
 .idata$4       0x6a66d3b8        0x4 c:/mingw/bin/../lib/gcc/mingw32/4.5.0/../../../libkernel32.a(dkjes00523.o)
 .idata$4       0x6a66d3bc        0x4 c:/mingw/bin/../lib/gcc/mingw32/4.5.0/../../../libkernel32.a(dkjes00524.o)
 .idata$4       0x6a66d3c0        0x4 c:/mingw/bin/../lib/gcc/mingw32/4.5.0/../../../libkernel32.a(dkjes00765.o)
 .idata$4       0x6a66d3c4        0x4 c:/mingw/bin/../lib/gcc/mingw32/4.5.0/../../../libkernel32.a(dkjes00798.o)
 .idata$4       0x6a66d3c8        0x4 c:/mingw/bin/../lib/gcc/mingw32/4.5.0/../../../libkernel32.a(dkjes00801.o)
 .idata$4       0x6a66d3cc        0x4 c:/mingw/bin/../lib/gcc/mingw32/4.5.0/../../../libkernel32.a(dkjet.o)
 .idata$4       0x6a66d3d0        0x0 c:/mingw/bin/../lib/gcc/mingw32/4.5.0/../../../libmoldname.a(dgzlh.o)
 .idata$4       0x6a66d3d0        0x4 c:/mingw/bin/../lib/gcc/mingw32/4.5.0/../../../libmoldname.a(dgzls00062.o)
 .idata$4       0x6a66d3d4        0x4 c:/mingw/bin/../lib/gcc/mingw32/4.5.0/../../../libmoldname.a(dgzlt.o)
 .idata$4       0x6a66d3d8        0x0 c:/mingw/bin/../lib/gcc/mingw32/4.5.0/../../../libmsvcrt.a(duymh.o)
 .idata$4       0x6a66d3d8        0x4 c:/mingw/bin/../lib/gcc/mingw32/4.5.0/../../../libmsvcrt.a(duyms00052.o)
 .idata$4       0x6a66d3dc        0x4 c:/mingw/bin/../lib/gcc/mingw32/4.5.0/../../../libmsvcrt.a(duyms00182.o)
 .idata$4       0x6a66d3e0        0x4 c:/mingw/bin/../lib/gcc/mingw32/4.5.0/../../../libmsvcrt.a(duyms00266.o)
 .idata$4       0x6a66d3e4        0x4 c:/mingw/bin/../lib/gcc/mingw32/4.5.0/../../../libmsvcrt.a(duyms00538.o)
 .idata$4       0x6a66d3e8        0x4 c:/mingw/bin/../lib/gcc/mingw32/4.5.0/../../../libmsvcrt.a(duyms00583.o)
 .idata$4       0x6a66d3ec        0x4 c:/mingw/bin/../lib/gcc/mingw32/4.5.0/../../../libmsvcrt.a(duyms00595.o)
 .idata$4       0x6a66d3f0        0x4 c:/mingw/bin/../lib/gcc/mingw32/4.5.0/../../../libmsvcrt.a(duyms00610.o)
 .idata$4       0x6a66d3f4        0x4 c:/mingw/bin/../lib/gcc/mingw32/4.5.0/../../../libmsvcrt.a(duyms00616.o)
 .idata$4       0x6a66d3f8        0x4 c:/mingw/bin/../lib/gcc/mingw32/4.5.0/../../../libmsvcrt.a(duyms00625.o)
 .idata$4       0x6a66d3fc        0x4 c:/mingw/bin/../lib/gcc/mingw32/4.5.0/../../../libmsvcrt.a(duyms00633.o)
 .idata$4       0x6a66d400        0x4 c:/mingw/bin/../lib/gcc/mingw32/4.5.0/../../../libmsvcrt.a(duyms00641.o)
 .idata$4       0x6a66d404        0x4 c:/mingw/bin/../lib/gcc/mingw32/4.5.0/../../../libmsvcrt.a(duyms00672.o)
 .idata$4       0x6a66d408        0x4 c:/mingw/bin/../lib/gcc/mingw32/4.5.0/../../../libmsvcrt.a(duyms00676.o)
 .idata$4       0x6a66d40c        0x4 c:/mingw/bin/../lib/gcc/mingw32/4.5.0/../../../libmsvcrt.a(duyms00682.o)
 .idata$4       0x6a66d410        0x4 c:/mingw/bin/../lib/gcc/mingw32/4.5.0/../../../libmsvcrt.a(duyms00684.o)
 .idata$4       0x6a66d414        0x4 c:/mingw/bin/../lib/gcc/mingw32/4.5.0/../../../libmsvcrt.a(duyms00685.o)
 .idata$4       0x6a66d418        0x4 c:/mingw/bin/../lib/gcc/mingw32/4.5.0/../../../libmsvcrt.a(duyms00712.o)
 .idata$4       0x6a66d41c        0x4 c:/mingw/bin/../lib/gcc/mingw32/4.5.0/../../../libmsvcrt.a(duyms00715.o)
 .idata$4       0x6a66d420        0x4 c:/mingw/bin/../lib/gcc/mingw32/4.5.0/../../../libmsvcrt.a(duyms00717.o)
 .idata$4       0x6a66d424        0x4 c:/mingw/bin/../lib/gcc/mingw32/4.5.0/../../../libmsvcrt.a(duyms00720.o)
 .idata$4       0x6a66d428        0x4 c:/mingw/bin/../lib/gcc/mingw32/4.5.0/../../../libmsvcrt.a(duyms00721.o)
 .idata$4       0x6a66d42c        0x4 c:/mingw/bin/../lib/gcc/mingw32/4.5.0/../../../libmsvcrt.a(duyms00723.o)
 .idata$4       0x6a66d430        0x4 c:/mingw/bin/../lib/gcc/mingw32/4.5.0/../../../libmsvcrt.a(duyms00728.o)
 .idata$4       0x6a66d434        0x4 c:/mingw/bin/../lib/gcc/mingw32/4.5.0/../../../libmsvcrt.a(duyms00739.o)
 .idata$4       0x6a66d438        0x4 c:/mingw/bin/../lib/gcc/mingw32/4.5.0/../../../libmsvcrt.a(duyms00748.o)
 .idata$4       0x6a66d43c        0x4 c:/mingw/bin/../lib/gcc/mingw32/4.5.0/../../../libmsvcrt.a(duymt.o)
 SORT(*)(.idata$5)
 .idata$5       0x6a66d440        0x0 C:/MinGW/msys/1.0/dev/lib/libglib-2.0.dll.a(d000000.o)
 .idata$5       0x6a66d440        0x4 C:/MinGW/msys/1.0/dev/lib/libglib-2.0.dll.a(d000024.o)
                0x6a66d440                _imp__g_ascii_strcasecmp
 .idata$5       0x6a66d444        0x4 C:/MinGW/msys/1.0/dev/lib/libglib-2.0.dll.a(d000036.o)
                0x6a66d444                _imp__g_assertion_message
 .idata$5       0x6a66d448        0x4 C:/MinGW/msys/1.0/dev/lib/libglib-2.0.dll.a(d000040.o)
                0x6a66d448                _imp__g_assertion_message_expr
 .idata$5       0x6a66d44c        0x4 C:/MinGW/msys/1.0/dev/lib/libglib-2.0.dll.a(d000126.o)
                0x6a66d44c                _imp__g_build_filename
 .idata$5       0x6a66d450        0x4 C:/MinGW/msys/1.0/dev/lib/libglib-2.0.dll.a(d000193.o)
                0x6a66d450                _imp__g_date_add_days
 .idata$5       0x6a66d454        0x4 C:/MinGW/msys/1.0/dev/lib/libglib-2.0.dll.a(d000194.o)
                0x6a66d454                _imp__g_date_add_months
 .idata$5       0x6a66d458        0x4 C:/MinGW/msys/1.0/dev/lib/libglib-2.0.dll.a(d000195.o)
                0x6a66d458                _imp__g_date_add_years
 .idata$5       0x6a66d45c        0x4 C:/MinGW/msys/1.0/dev/lib/libglib-2.0.dll.a(d000197.o)
                0x6a66d45c                _imp__g_date_clear
 .idata$5       0x6a66d460        0x4 C:/MinGW/msys/1.0/dev/lib/libglib-2.0.dll.a(d000198.o)
                0x6a66d460                _imp__g_date_compare
 .idata$5       0x6a66d464        0x4 C:/MinGW/msys/1.0/dev/lib/libglib-2.0.dll.a(d000199.o)
                0x6a66d464                _imp__g_date_days_between
 .idata$5       0x6a66d468        0x4 C:/MinGW/msys/1.0/dev/lib/libglib-2.0.dll.a(d000201.o)
                0x6a66d468                _imp__g_date_get_day
 .idata$5       0x6a66d46c        0x4 C:/MinGW/msys/1.0/dev/lib/libglib-2.0.dll.a(d000205.o)
                0x6a66d46c                _imp__g_date_get_julian
 .idata$5       0x6a66d470        0x4 C:/MinGW/msys/1.0/dev/lib/libglib-2.0.dll.a(d000208.o)
                0x6a66d470                _imp__g_date_get_month
 .idata$5       0x6a66d474        0x4 C:/MinGW/msys/1.0/dev/lib/libglib-2.0.dll.a(d000211.o)
                0x6a66d474                _imp__g_date_get_weekday
 .idata$5       0x6a66d478        0x4 C:/MinGW/msys/1.0/dev/lib/libglib-2.0.dll.a(d000212.o)
                0x6a66d478                _imp__g_date_get_year
 .idata$5       0x6a66d47c        0x4 C:/MinGW/msys/1.0/dev/lib/libglib-2.0.dll.a(d000220.o)
                0x6a66d47c                _imp__g_date_set_day
 .idata$5       0x6a66d480        0x4 C:/MinGW/msys/1.0/dev/lib/libglib-2.0.dll.a(d000221.o)
                0x6a66d480                _imp__g_date_set_dmy
 .idata$5       0x6a66d484        0x4 C:/MinGW/msys/1.0/dev/lib/libglib-2.0.dll.a(d000223.o)
                0x6a66d484                _imp__g_date_set_month
 .idata$5       0x6a66d488        0x4 C:/MinGW/msys/1.0/dev/lib/libglib-2.0.dll.a(d000229.o)
                0x6a66d488                _imp__g_date_strftime
 .idata$5       0x6a66d48c        0x4 C:/MinGW/msys/1.0/dev/lib/libglib-2.0.dll.a(d000230.o)
                0x6a66d48c                _imp__g_date_subtract_days
 .idata$5       0x6a66d490        0x4 C:/MinGW/msys/1.0/dev/lib/libglib-2.0.dll.a(d000231.o)
                0x6a66d490                _imp__g_date_subtract_months
 .idata$5       0x6a66d494        0x4 C:/MinGW/msys/1.0/dev/lib/libglib-2.0.dll.a(d000232.o)
                0x6a66d494                _imp__g_date_subtract_years
 .idata$5       0x6a66d498        0x4 C:/MinGW/msys/1.0/dev/lib/libglib-2.0.dll.a(d000290.o)
                0x6a66d498                _imp__g_dir_close
 .idata$5       0x6a66d49c        0x4 C:/MinGW/msys/1.0/dev/lib/libglib-2.0.dll.a(d000291.o)
                0x6a66d49c                _imp__g_dir_open_utf8
 .idata$5       0x6a66d4a0        0x4 C:/MinGW/msys/1.0/dev/lib/libglib-2.0.dll.a(d000292.o)
                0x6a66d4a0                _imp__g_dir_read_name_utf8
 .idata$5       0x6a66d4a4        0x4 C:/MinGW/msys/1.0/dev/lib/libglib-2.0.dll.a(d000309.o)
                0x6a66d4a4                _imp__g_file_get_contents_utf8
 .idata$5       0x6a66d4a8        0x4 C:/MinGW/msys/1.0/dev/lib/libglib-2.0.dll.a(d000324.o)
                0x6a66d4a8                _imp__g_free
 .idata$5       0x6a66d4ac        0x4 C:/MinGW/msys/1.0/dev/lib/libglib-2.0.dll.a(d000345.o)
                0x6a66d4ac                _imp__g_getenv_utf8
 .idata$5       0x6a66d4b0        0x4 C:/MinGW/msys/1.0/dev/lib/libglib-2.0.dll.a(d000346.o)
                0x6a66d4b0                _imp__g_hash_table_destroy
 .idata$5       0x6a66d4b4        0x4 C:/MinGW/msys/1.0/dev/lib/libglib-2.0.dll.a(d000348.o)
                0x6a66d4b4                _imp__g_hash_table_foreach
 .idata$5       0x6a66d4b8        0x4 C:/MinGW/msys/1.0/dev/lib/libglib-2.0.dll.a(d000353.o)
                0x6a66d4b8                _imp__g_hash_table_insert
 .idata$5       0x6a66d4bc        0x4 C:/MinGW/msys/1.0/dev/lib/libglib-2.0.dll.a(d000359.o)
                0x6a66d4bc                _imp__g_hash_table_lookup
 .idata$5       0x6a66d4c0        0x4 C:/MinGW/msys/1.0/dev/lib/libglib-2.0.dll.a(d000361.o)
                0x6a66d4c0                _imp__g_hash_table_new
 .idata$5       0x6a66d4c4        0x4 C:/MinGW/msys/1.0/dev/lib/libglib-2.0.dll.a(d000362.o)
                0x6a66d4c4                _imp__g_hash_table_new_full
 .idata$5       0x6a66d4c8        0x4 C:/MinGW/msys/1.0/dev/lib/libglib-2.0.dll.a(d000364.o)
                0x6a66d4c8                _imp__g_hash_table_remove
 .idata$5       0x6a66d4cc        0x4 C:/MinGW/msys/1.0/dev/lib/libglib-2.0.dll.a(d000368.o)
                0x6a66d4cc                _imp__g_hash_table_steal
 .idata$5       0x6a66d4d0        0x4 C:/MinGW/msys/1.0/dev/lib/libglib-2.0.dll.a(d000505.o)
                0x6a66d4d0                _imp__g_list_append
 .idata$5       0x6a66d4d4        0x4 C:/MinGW/msys/1.0/dev/lib/libglib-2.0.dll.a(d000506.o)
                0x6a66d4d4                _imp__g_list_concat
 .idata$5       0x6a66d4d8        0x4 C:/MinGW/msys/1.0/dev/lib/libglib-2.0.dll.a(d000507.o)
                0x6a66d4d8                _imp__g_list_copy
 .idata$5       0x6a66d4dc        0x4 C:/MinGW/msys/1.0/dev/lib/libglib-2.0.dll.a(d000509.o)
                0x6a66d4dc                _imp__g_list_find
 .idata$5       0x6a66d4e0        0x4 C:/MinGW/msys/1.0/dev/lib/libglib-2.0.dll.a(d000512.o)
                0x6a66d4e0                _imp__g_list_foreach
 .idata$5       0x6a66d4e4        0x4 C:/MinGW/msys/1.0/dev/lib/libglib-2.0.dll.a(d000513.o)
                0x6a66d4e4                _imp__g_list_free
 .idata$5       0x6a66d4e8        0x4 C:/MinGW/msys/1.0/dev/lib/libglib-2.0.dll.a(d000515.o)
                0x6a66d4e8                _imp__g_list_index
 .idata$5       0x6a66d4ec        0x4 C:/MinGW/msys/1.0/dev/lib/libglib-2.0.dll.a(d000521.o)
                0x6a66d4ec                _imp__g_list_length
 .idata$5       0x6a66d4f0        0x4 C:/MinGW/msys/1.0/dev/lib/libglib-2.0.dll.a(d000523.o)
                0x6a66d4f0                _imp__g_list_nth_data
 .idata$5       0x6a66d4f4        0x4 C:/MinGW/msys/1.0/dev/lib/libglib-2.0.dll.a(d000527.o)
                0x6a66d4f4                _imp__g_list_prepend
 .idata$5       0x6a66d4f8        0x4 C:/MinGW/msys/1.0/dev/lib/libglib-2.0.dll.a(d000529.o)
                0x6a66d4f8                _imp__g_list_remove
 .idata$5       0x6a66d4fc        0x4 C:/MinGW/msys/1.0/dev/lib/libglib-2.0.dll.a(d000531.o)
                0x6a66d4fc                _imp__g_list_remove_link
 .idata$5       0x6a66d500        0x4 C:/MinGW/msys/1.0/dev/lib/libglib-2.0.dll.a(d000532.o)
                0x6a66d500                _imp__g_list_reverse
 .idata$5       0x6a66d504        0x4 C:/MinGW/msys/1.0/dev/lib/libglib-2.0.dll.a(d000533.o)
                0x6a66d504                _imp__g_list_sort
 .idata$5       0x6a66d508        0x4 C:/MinGW/msys/1.0/dev/lib/libglib-2.0.dll.a(d000537.o)
                0x6a66d508                _imp__g_locale_to_utf8
 .idata$5       0x6a66d50c        0x4 C:/MinGW/msys/1.0/dev/lib/libglib-2.0.dll.a(d000538.o)
                0x6a66d50c                _imp__g_log
 .idata$5       0x6a66d510        0x4 C:/MinGW/msys/1.0/dev/lib/libglib-2.0.dll.a(d000581.o)
                0x6a66d510                _imp__g_malloc
 .idata$5       0x6a66d514        0x4 C:/MinGW/msys/1.0/dev/lib/libglib-2.0.dll.a(d000582.o)
                0x6a66d514                _imp__g_malloc0
 .idata$5       0x6a66d518        0x4 C:/MinGW/msys/1.0/dev/lib/libglib-2.0.dll.a(d000583.o)
                0x6a66d518                _imp__g_malloc0_n
 .idata$5       0x6a66d51c        0x4 C:/MinGW/msys/1.0/dev/lib/libglib-2.0.dll.a(d000584.o)
                0x6a66d51c                _imp__g_malloc_n
 .idata$5       0x6a66d520        0x4 C:/MinGW/msys/1.0/dev/lib/libglib-2.0.dll.a(d000638.o)
                0x6a66d520                _imp__g_node_child_position
 .idata$5       0x6a66d524        0x4 C:/MinGW/msys/1.0/dev/lib/libglib-2.0.dll.a(d000642.o)
                0x6a66d524                _imp__g_node_depth
 .idata$5       0x6a66d528        0x4 C:/MinGW/msys/1.0/dev/lib/libglib-2.0.dll.a(d000643.o)
                0x6a66d528                _imp__g_node_destroy
 .idata$5       0x6a66d52c        0x4 C:/MinGW/msys/1.0/dev/lib/libglib-2.0.dll.a(d000648.o)
                0x6a66d52c                _imp__g_node_insert
 .idata$5       0x6a66d530        0x4 C:/MinGW/msys/1.0/dev/lib/libglib-2.0.dll.a(d000649.o)
                0x6a66d530                _imp__g_node_insert_after
 .idata$5       0x6a66d534        0x4 C:/MinGW/msys/1.0/dev/lib/libglib-2.0.dll.a(d000650.o)
                0x6a66d534                _imp__g_node_insert_before
 .idata$5       0x6a66d538        0x4 C:/MinGW/msys/1.0/dev/lib/libglib-2.0.dll.a(d000652.o)
                0x6a66d538                _imp__g_node_last_child
 .idata$5       0x6a66d53c        0x4 C:/MinGW/msys/1.0/dev/lib/libglib-2.0.dll.a(d000655.o)
                0x6a66d53c                _imp__g_node_n_children
 .idata$5       0x6a66d540        0x4 C:/MinGW/msys/1.0/dev/lib/libglib-2.0.dll.a(d000657.o)
                0x6a66d540                _imp__g_node_new
 .idata$5       0x6a66d544        0x4 C:/MinGW/msys/1.0/dev/lib/libglib-2.0.dll.a(d000658.o)
                0x6a66d544                _imp__g_node_nth_child
 .idata$5       0x6a66d548        0x4 C:/MinGW/msys/1.0/dev/lib/libglib-2.0.dll.a(d000660.o)
                0x6a66d548                _imp__g_node_prepend
 .idata$5       0x6a66d54c        0x4 C:/MinGW/msys/1.0/dev/lib/libglib-2.0.dll.a(d000663.o)
                0x6a66d54c                _imp__g_node_traverse
 .idata$5       0x6a66d550        0x4 C:/MinGW/msys/1.0/dev/lib/libglib-2.0.dll.a(d000664.o)
                0x6a66d550                _imp__g_node_unlink
 .idata$5       0x6a66d554        0x4 C:/MinGW/msys/1.0/dev/lib/libglib-2.0.dll.a(d000712.o)
                0x6a66d554                _imp__g_print
 .idata$5       0x6a66d558        0x4 C:/MinGW/msys/1.0/dev/lib/libglib-2.0.dll.a(d000714.o)
                0x6a66d558                _imp__g_printf
 .idata$5       0x6a66d55c        0x4 C:/MinGW/msys/1.0/dev/lib/libglib-2.0.dll.a(d000718.o)
                0x6a66d55c                _imp__g_ptr_array_add
 .idata$5       0x6a66d560        0x4 C:/MinGW/msys/1.0/dev/lib/libglib-2.0.dll.a(d000720.o)
                0x6a66d560                _imp__g_ptr_array_free
 .idata$5       0x6a66d564        0x4 C:/MinGW/msys/1.0/dev/lib/libglib-2.0.dll.a(d000721.o)
                0x6a66d564                _imp__g_ptr_array_new
 .idata$5       0x6a66d568        0x4 C:/MinGW/msys/1.0/dev/lib/libglib-2.0.dll.a(d000732.o)
                0x6a66d568                _imp__g_ptr_array_sort
 .idata$5       0x6a66d56c        0x4 C:/MinGW/msys/1.0/dev/lib/libglib-2.0.dll.a(d000736.o)
                0x6a66d56c                _imp__g_quark_from_static_string
 .idata$5       0x6a66d570        0x4 C:/MinGW/msys/1.0/dev/lib/libglib-2.0.dll.a(d000737.o)
                0x6a66d570                _imp__g_quark_from_string
 .idata$5       0x6a66d574        0x4 C:/MinGW/msys/1.0/dev/lib/libglib-2.0.dll.a(d000795.o)
                0x6a66d574                _imp__g_realloc
 .idata$5       0x6a66d578        0x4 C:/MinGW/msys/1.0/dev/lib/libglib-2.0.dll.a(d000832.o)
                0x6a66d578                _imp__g_return_if_fail_warning
 .idata$5       0x6a66d57c        0x4 C:/MinGW/msys/1.0/dev/lib/libglib-2.0.dll.a(d000891.o)
                0x6a66d57c                _imp__g_set_error
 .idata$5       0x6a66d580        0x4 C:/MinGW/msys/1.0/dev/lib/libglib-2.0.dll.a(d000896.o)
                0x6a66d580                _imp__g_setenv_utf8
 .idata$5       0x6a66d584        0x4 C:/MinGW/msys/1.0/dev/lib/libglib-2.0.dll.a(d000996.o)
                0x6a66d584                _imp__g_str_equal
 .idata$5       0x6a66d588        0x4 C:/MinGW/msys/1.0/dev/lib/libglib-2.0.dll.a(d000998.o)
                0x6a66d588                _imp__g_str_has_suffix
 .idata$5       0x6a66d58c        0x4 C:/MinGW/msys/1.0/dev/lib/libglib-2.0.dll.a(d000999.o)
                0x6a66d58c                _imp__g_str_hash
 .idata$5       0x6a66d590        0x4 C:/MinGW/msys/1.0/dev/lib/libglib-2.0.dll.a(d001004.o)
                0x6a66d590                _imp__g_strcmp0
 .idata$5       0x6a66d594        0x4 C:/MinGW/msys/1.0/dev/lib/libglib-2.0.dll.a(d001006.o)
                0x6a66d594                _imp__g_strconcat
 .idata$5       0x6a66d598        0x4 C:/MinGW/msys/1.0/dev/lib/libglib-2.0.dll.a(d001009.o)
                0x6a66d598                _imp__g_strdup
 .idata$5       0x6a66d59c        0x4 C:/MinGW/msys/1.0/dev/lib/libglib-2.0.dll.a(d001010.o)
                0x6a66d59c                _imp__g_strdup_printf
 .idata$5       0x6a66d5a0        0x4 C:/MinGW/msys/1.0/dev/lib/libglib-2.0.dll.a(d001035.o)
                0x6a66d5a0                _imp__g_string_free
 .idata$5       0x6a66d5a4        0x4 C:/MinGW/msys/1.0/dev/lib/libglib-2.0.dll.a(d001038.o)
                0x6a66d5a4                _imp__g_string_insert_c
 .idata$5       0x6a66d5a8        0x4 C:/MinGW/msys/1.0/dev/lib/libglib-2.0.dll.a(d001041.o)
                0x6a66d5a8                _imp__g_string_new
 .idata$5       0x6a66d5ac        0x4 C:/MinGW/msys/1.0/dev/lib/libglib-2.0.dll.a(d001212.o)
                0x6a66d5ac                _imp__g_unichar_to_utf8
 .idata$5       0x6a66d5b0        0x4 C:/MinGW/msys/1.0/dev/lib/libglib-2.0.dll.a(d001222.o)
                0x6a66d5b0                _imp__g_unsetenv_utf8
 .idata$5       0x6a66d5b4        0x4 C:/MinGW/msys/1.0/dev/lib/libglib-2.0.dll.a(d001237.o)
                0x6a66d5b4                _imp__g_utf8_get_char
 .idata$5       0x6a66d5b8        0x4 C:/MinGW/msys/1.0/dev/lib/libglib-2.0.dll.a(d001410.o)
                0x6a66d5b8                _imp__g_win32_get_package_installation_directory_of_module
 .idata$5       0x6a66d5bc        0x4 C:/MinGW/msys/1.0/dev/lib/libglib-2.0.dll.a(d001426.o)
 .idata$5       0x6a66d5c0        0x0 C:/MinGW/msys/1.0/dev/lib/libgmodule-2.0.dll.a(d000000.o)
 .idata$5       0x6a66d5c0        0x4 C:/MinGW/msys/1.0/dev/lib/libgmodule-2.0.dll.a(d000001.o)
                0x6a66d5c0                _imp__g_module_build_path
 .idata$5       0x6a66d5c4        0x4 C:/MinGW/msys/1.0/dev/lib/libgmodule-2.0.dll.a(d000002.o)
                0x6a66d5c4                _imp__g_module_close
 .idata$5       0x6a66d5c8        0x4 C:/MinGW/msys/1.0/dev/lib/libgmodule-2.0.dll.a(d000003.o)
                0x6a66d5c8                _imp__g_module_error
 .idata$5       0x6a66d5cc        0x4 C:/MinGW/msys/1.0/dev/lib/libgmodule-2.0.dll.a(d000006.o)
                0x6a66d5cc                _imp__g_module_open_utf8
 .idata$5       0x6a66d5d0        0x4 C:/MinGW/msys/1.0/dev/lib/libgmodule-2.0.dll.a(d000008.o)
                0x6a66d5d0                _imp__g_module_symbol
 .idata$5       0x6a66d5d4        0x4 C:/MinGW/msys/1.0/dev/lib/libgmodule-2.0.dll.a(d000009.o)
 .idata$5       0x6a66d5d8        0x0 C:/MinGW/msys/1.0/dev/lib/libgobject-2.0.dll.a(d000000.o)
 .idata$5       0x6a66d5d8        0x4 C:/MinGW/msys/1.0/dev/lib/libgobject-2.0.dll.a(d000011.o)
                0x6a66d5d8                _imp__g_boxed_type_register_static
 .idata$5       0x6a66d5dc        0x4 C:/MinGW/msys/1.0/dev/lib/libgobject-2.0.dll.a(d000016.o)
                0x6a66d5dc                _imp__g_cclosure_marshal_VOID__BOOLEAN
 .idata$5       0x6a66d5e0        0x4 C:/MinGW/msys/1.0/dev/lib/libgobject-2.0.dll.a(d000025.o)
                0x6a66d5e0                _imp__g_cclosure_marshal_VOID__OBJECT
 .idata$5       0x6a66d5e4        0x4 C:/MinGW/msys/1.0/dev/lib/libgobject-2.0.dll.a(d000027.o)
                0x6a66d5e4                _imp__g_cclosure_marshal_VOID__POINTER
 .idata$5       0x6a66d5e8        0x4 C:/MinGW/msys/1.0/dev/lib/libgobject-2.0.dll.a(d000034.o)
                0x6a66d5e8                _imp__g_cclosure_marshal_VOID__VOID
 .idata$5       0x6a66d5ec        0x4 C:/MinGW/msys/1.0/dev/lib/libgobject-2.0.dll.a(d000060.o)
                0x6a66d5ec                _imp__g_enum_register_static
 .idata$5       0x6a66d5f0        0x4 C:/MinGW/msys/1.0/dev/lib/libgobject-2.0.dll.a(d000078.o)
                0x6a66d5f0                _imp__g_object_class_find_property
 .idata$5       0x6a66d5f4        0x4 C:/MinGW/msys/1.0/dev/lib/libgobject-2.0.dll.a(d000080.o)
                0x6a66d5f4                _imp__g_object_class_install_property
 .idata$5       0x6a66d5f8        0x4 C:/MinGW/msys/1.0/dev/lib/libgobject-2.0.dll.a(d000088.o)
                0x6a66d5f8                _imp__g_object_get
 .idata$5       0x6a66d5fc        0x4 C:/MinGW/msys/1.0/dev/lib/libgobject-2.0.dll.a(d000089.o)
                0x6a66d5fc                _imp__g_object_get_data
 .idata$5       0x6a66d600        0x4 C:/MinGW/msys/1.0/dev/lib/libgobject-2.0.dll.a(d000090.o)
                0x6a66d600                _imp__g_object_get_property
 .idata$5       0x6a66d604        0x4 C:/MinGW/msys/1.0/dev/lib/libgobject-2.0.dll.a(d000098.o)
                0x6a66d604                _imp__g_object_new
 .idata$5       0x6a66d608        0x4 C:/MinGW/msys/1.0/dev/lib/libgobject-2.0.dll.a(d000101.o)
                0x6a66d608                _imp__g_object_notify
 .idata$5       0x6a66d60c        0x4 C:/MinGW/msys/1.0/dev/lib/libgobject-2.0.dll.a(d000103.o)
                0x6a66d60c                _imp__g_object_ref
 .idata$5       0x6a66d610        0x4 C:/MinGW/msys/1.0/dev/lib/libgobject-2.0.dll.a(d000108.o)
                0x6a66d610                _imp__g_object_set
 .idata$5       0x6a66d614        0x4 C:/MinGW/msys/1.0/dev/lib/libgobject-2.0.dll.a(d000111.o)
                0x6a66d614                _imp__g_object_set_property
 .idata$5       0x6a66d618        0x4 C:/MinGW/msys/1.0/dev/lib/libgobject-2.0.dll.a(d000118.o)
                0x6a66d618                _imp__g_object_unref
 .idata$5       0x6a66d61c        0x4 C:/MinGW/msys/1.0/dev/lib/libgobject-2.0.dll.a(d000122.o)
                0x6a66d61c                _imp__g_param_spec_boolean
 .idata$5       0x6a66d620        0x4 C:/MinGW/msys/1.0/dev/lib/libgobject-2.0.dll.a(d000123.o)
                0x6a66d620                _imp__g_param_spec_boxed
 .idata$5       0x6a66d624        0x4 C:/MinGW/msys/1.0/dev/lib/libgobject-2.0.dll.a(d000126.o)
                0x6a66d624                _imp__g_param_spec_enum
 .idata$5       0x6a66d628        0x4 C:/MinGW/msys/1.0/dev/lib/libgobject-2.0.dll.a(d000128.o)
                0x6a66d628                _imp__g_param_spec_float
 .idata$5       0x6a66d62c        0x4 C:/MinGW/msys/1.0/dev/lib/libgobject-2.0.dll.a(d000132.o)
                0x6a66d62c                _imp__g_param_spec_get_qdata
 .idata$5       0x6a66d630        0x4 C:/MinGW/msys/1.0/dev/lib/libgobject-2.0.dll.a(d000135.o)
                0x6a66d630                _imp__g_param_spec_int
 .idata$5       0x6a66d634        0x4 C:/MinGW/msys/1.0/dev/lib/libgobject-2.0.dll.a(d000138.o)
                0x6a66d634                _imp__g_param_spec_long
 .idata$5       0x6a66d638        0x4 C:/MinGW/msys/1.0/dev/lib/libgobject-2.0.dll.a(d000139.o)
                0x6a66d638                _imp__g_param_spec_object
 .idata$5       0x6a66d63c        0x4 C:/MinGW/msys/1.0/dev/lib/libgobject-2.0.dll.a(d000142.o)
                0x6a66d63c                _imp__g_param_spec_pointer
 .idata$5       0x6a66d640        0x4 C:/MinGW/msys/1.0/dev/lib/libgobject-2.0.dll.a(d000143.o)
                0x6a66d640                _imp__g_param_spec_pool_insert
 .idata$5       0x6a66d644        0x4 C:/MinGW/msys/1.0/dev/lib/libgobject-2.0.dll.a(d000145.o)
                0x6a66d644                _imp__g_param_spec_pool_list_owned
 .idata$5       0x6a66d648        0x4 C:/MinGW/msys/1.0/dev/lib/libgobject-2.0.dll.a(d000146.o)
                0x6a66d648                _imp__g_param_spec_pool_lookup
 .idata$5       0x6a66d64c        0x4 C:/MinGW/msys/1.0/dev/lib/libgobject-2.0.dll.a(d000147.o)
                0x6a66d64c                _imp__g_param_spec_pool_new
 .idata$5       0x6a66d650        0x4 C:/MinGW/msys/1.0/dev/lib/libgobject-2.0.dll.a(d000148.o)
                0x6a66d650                _imp__g_param_spec_pool_remove
 .idata$5       0x6a66d654        0x4 C:/MinGW/msys/1.0/dev/lib/libgobject-2.0.dll.a(d000149.o)
                0x6a66d654                _imp__g_param_spec_ref
 .idata$5       0x6a66d658        0x4 C:/MinGW/msys/1.0/dev/lib/libgobject-2.0.dll.a(d000151.o)
                0x6a66d658                _imp__g_param_spec_set_qdata
 .idata$5       0x6a66d65c        0x4 C:/MinGW/msys/1.0/dev/lib/libgobject-2.0.dll.a(d000152.o)
                0x6a66d65c                _imp__g_param_spec_set_qdata_full
 .idata$5       0x6a66d660        0x4 C:/MinGW/msys/1.0/dev/lib/libgobject-2.0.dll.a(d000155.o)
                0x6a66d660                _imp__g_param_spec_string
 .idata$5       0x6a66d664        0x4 C:/MinGW/msys/1.0/dev/lib/libgobject-2.0.dll.a(d000162.o)
                0x6a66d664                _imp__g_param_spec_unref
 .idata$5       0x6a66d668        0x4 C:/MinGW/msys/1.0/dev/lib/libgobject-2.0.dll.a(d000163.o)
                0x6a66d668                _imp__g_param_spec_value_array
 .idata$5       0x6a66d66c        0x4 C:/MinGW/msys/1.0/dev/lib/libgobject-2.0.dll.a(d000168.o)
                0x6a66d66c                _imp__g_param_value_set_default
 .idata$5       0x6a66d670        0x4 C:/MinGW/msys/1.0/dev/lib/libgobject-2.0.dll.a(d000180.o)
                0x6a66d670                _imp__g_signal_connect_data
 .idata$5       0x6a66d674        0x4 C:/MinGW/msys/1.0/dev/lib/libgobject-2.0.dll.a(d000181.o)
                0x6a66d674                _imp__g_signal_connect_object
 .idata$5       0x6a66d678        0x4 C:/MinGW/msys/1.0/dev/lib/libgobject-2.0.dll.a(d000182.o)
                0x6a66d678                _imp__g_signal_emit
 .idata$5       0x6a66d67c        0x4 C:/MinGW/msys/1.0/dev/lib/libgobject-2.0.dll.a(d000183.o)
                0x6a66d67c                _imp__g_signal_emit_by_name
 .idata$5       0x6a66d680        0x4 C:/MinGW/msys/1.0/dev/lib/libgobject-2.0.dll.a(d000192.o)
                0x6a66d680                _imp__g_signal_handlers_block_matched
 .idata$5       0x6a66d684        0x4 C:/MinGW/msys/1.0/dev/lib/libgobject-2.0.dll.a(d000194.o)
                0x6a66d684                _imp__g_signal_handlers_disconnect_matched
 .idata$5       0x6a66d688        0x4 C:/MinGW/msys/1.0/dev/lib/libgobject-2.0.dll.a(d000195.o)
                0x6a66d688                _imp__g_signal_handlers_unblock_matched
 .idata$5       0x6a66d68c        0x4 C:/MinGW/msys/1.0/dev/lib/libgobject-2.0.dll.a(d000200.o)
                0x6a66d68c                _imp__g_signal_new
 .idata$5       0x6a66d690        0x4 C:/MinGW/msys/1.0/dev/lib/libgobject-2.0.dll.a(d000220.o)
                0x6a66d690                _imp__g_type_check_class_cast
 .idata$5       0x6a66d694        0x4 C:/MinGW/msys/1.0/dev/lib/libgobject-2.0.dll.a(d000223.o)
                0x6a66d694                _imp__g_type_check_instance_cast
 .idata$5       0x6a66d698        0x4 C:/MinGW/msys/1.0/dev/lib/libgobject-2.0.dll.a(d000224.o)
                0x6a66d698                _imp__g_type_check_instance_is_a
 .idata$5       0x6a66d69c        0x4 C:/MinGW/msys/1.0/dev/lib/libgobject-2.0.dll.a(d000232.o)
                0x6a66d69c                _imp__g_type_class_peek_parent
 .idata$5       0x6a66d6a0        0x4 C:/MinGW/msys/1.0/dev/lib/libgobject-2.0.dll.a(d000259.o)
                0x6a66d6a0                _imp__g_type_module_get_type
 .idata$5       0x6a66d6a4        0x4 C:/MinGW/msys/1.0/dev/lib/libgobject-2.0.dll.a(d000263.o)
                0x6a66d6a4                _imp__g_type_module_set_name
 .idata$5       0x6a66d6a8        0x4 C:/MinGW/msys/1.0/dev/lib/libgobject-2.0.dll.a(d000264.o)
                0x6a66d6a8                _imp__g_type_module_unuse
 .idata$5       0x6a66d6ac        0x4 C:/MinGW/msys/1.0/dev/lib/libgobject-2.0.dll.a(d000265.o)
                0x6a66d6ac                _imp__g_type_module_use
 .idata$5       0x6a66d6b0        0x4 C:/MinGW/msys/1.0/dev/lib/libgobject-2.0.dll.a(d000266.o)
                0x6a66d6b0                _imp__g_type_name
 .idata$5       0x6a66d6b4        0x4 C:/MinGW/msys/1.0/dev/lib/libgobject-2.0.dll.a(d000280.o)
                0x6a66d6b4                _imp__g_type_register_static
 .idata$5       0x6a66d6b8        0x4 C:/MinGW/msys/1.0/dev/lib/libgobject-2.0.dll.a(d000286.o)
                0x6a66d6b8                _imp__g_type_value_table_peek
 .idata$5       0x6a66d6bc        0x4 C:/MinGW/msys/1.0/dev/lib/libgobject-2.0.dll.a(d000298.o)
                0x6a66d6bc                _imp__g_value_copy
 .idata$5       0x6a66d6c0        0x4 C:/MinGW/msys/1.0/dev/lib/libgobject-2.0.dll.a(d000302.o)
                0x6a66d6c0                _imp__g_value_dup_string
 .idata$5       0x6a66d6c4        0x4 C:/MinGW/msys/1.0/dev/lib/libgobject-2.0.dll.a(d000305.o)
                0x6a66d6c4                _imp__g_value_get_boolean
 .idata$5       0x6a66d6c8        0x4 C:/MinGW/msys/1.0/dev/lib/libgobject-2.0.dll.a(d000306.o)
                0x6a66d6c8                _imp__g_value_get_boxed
 .idata$5       0x6a66d6cc        0x4 C:/MinGW/msys/1.0/dev/lib/libgobject-2.0.dll.a(d000309.o)
                0x6a66d6cc                _imp__g_value_get_enum
 .idata$5       0x6a66d6d0        0x4 C:/MinGW/msys/1.0/dev/lib/libgobject-2.0.dll.a(d000311.o)
                0x6a66d6d0                _imp__g_value_get_float
 .idata$5       0x6a66d6d4        0x4 C:/MinGW/msys/1.0/dev/lib/libgobject-2.0.dll.a(d000313.o)
                0x6a66d6d4                _imp__g_value_get_int
 .idata$5       0x6a66d6d8        0x4 C:/MinGW/msys/1.0/dev/lib/libgobject-2.0.dll.a(d000315.o)
                0x6a66d6d8                _imp__g_value_get_long
 .idata$5       0x6a66d6dc        0x4 C:/MinGW/msys/1.0/dev/lib/libgobject-2.0.dll.a(d000316.o)
                0x6a66d6dc                _imp__g_value_get_object
 .idata$5       0x6a66d6e0        0x4 C:/MinGW/msys/1.0/dev/lib/libgobject-2.0.dll.a(d000318.o)
                0x6a66d6e0                _imp__g_value_get_pointer
 .idata$5       0x6a66d6e4        0x4 C:/MinGW/msys/1.0/dev/lib/libgobject-2.0.dll.a(d000319.o)
                0x6a66d6e4                _imp__g_value_get_string
 .idata$5       0x6a66d6e8        0x4 C:/MinGW/msys/1.0/dev/lib/libgobject-2.0.dll.a(d000320.o)
                0x6a66d6e8                _imp__g_value_get_type
 .idata$5       0x6a66d6ec        0x4 C:/MinGW/msys/1.0/dev/lib/libgobject-2.0.dll.a(d000326.o)
                0x6a66d6ec                _imp__g_value_init
 .idata$5       0x6a66d6f0        0x4 C:/MinGW/msys/1.0/dev/lib/libgobject-2.0.dll.a(d000327.o)
                0x6a66d6f0                _imp__g_value_peek_pointer
 .idata$5       0x6a66d6f4        0x4 C:/MinGW/msys/1.0/dev/lib/libgobject-2.0.dll.a(d000330.o)
                0x6a66d6f4                _imp__g_value_set_boolean
 .idata$5       0x6a66d6f8        0x4 C:/MinGW/msys/1.0/dev/lib/libgobject-2.0.dll.a(d000331.o)
                0x6a66d6f8                _imp__g_value_set_boxed
 .idata$5       0x6a66d6fc        0x4 C:/MinGW/msys/1.0/dev/lib/libgobject-2.0.dll.a(d000335.o)
                0x6a66d6fc                _imp__g_value_set_enum
 .idata$5       0x6a66d700        0x4 C:/MinGW/msys/1.0/dev/lib/libgobject-2.0.dll.a(d000337.o)
                0x6a66d700                _imp__g_value_set_float
 .idata$5       0x6a66d704        0x4 C:/MinGW/msys/1.0/dev/lib/libgobject-2.0.dll.a(d000340.o)
                0x6a66d704                _imp__g_value_set_int
 .idata$5       0x6a66d708        0x4 C:/MinGW/msys/1.0/dev/lib/libgobject-2.0.dll.a(d000342.o)
                0x6a66d708                _imp__g_value_set_long
 .idata$5       0x6a66d70c        0x4 C:/MinGW/msys/1.0/dev/lib/libgobject-2.0.dll.a(d000343.o)
                0x6a66d70c                _imp__g_value_set_object
 .idata$5       0x6a66d710        0x4 C:/MinGW/msys/1.0/dev/lib/libgobject-2.0.dll.a(d000347.o)
                0x6a66d710                _imp__g_value_set_pointer
 .idata$5       0x6a66d714        0x4 C:/MinGW/msys/1.0/dev/lib/libgobject-2.0.dll.a(d000350.o)
                0x6a66d714                _imp__g_value_set_string
 .idata$5       0x6a66d718        0x4 C:/MinGW/msys/1.0/dev/lib/libgobject-2.0.dll.a(d000365.o)
                0x6a66d718                _imp__g_value_unset
 .idata$5       0x6a66d71c        0x4 C:/MinGW/msys/1.0/dev/lib/libgobject-2.0.dll.a(d000368.o)
 .idata$5       0x6a66d720        0x0 C:/MinGW/msys/1.0/dev/lib/libintl.dll.a(d000000.o)
 .idata$5       0x6a66d720        0x4 C:/MinGW/msys/1.0/dev/lib/libintl.dll.a(d000010.o)
                0x6a66d720                _imp__libintl_bind_textdomain_codeset
 .idata$5       0x6a66d724        0x4 C:/MinGW/msys/1.0/dev/lib/libintl.dll.a(d000011.o)
                0x6a66d724                _imp__libintl_bindtextdomain
 .idata$5       0x6a66d728        0x4 C:/MinGW/msys/1.0/dev/lib/libintl.dll.a(d000017.o)
                0x6a66d728                _imp__libintl_gettext
 .idata$5       0x6a66d72c        0x4 C:/MinGW/msys/1.0/dev/lib/libintl.dll.a(d000019.o)
                0x6a66d72c                _imp__libintl_printf
 .idata$5       0x6a66d730        0x4 C:/MinGW/msys/1.0/dev/lib/libintl.dll.a(d000022.o)
                0x6a66d730                _imp__libintl_snprintf
 .idata$5       0x6a66d734        0x4 C:/MinGW/msys/1.0/dev/lib/libintl.dll.a(d000031.o)
 .idata$5       0x6a66d738        0x0 c:/mingw/bin/../lib/gcc/mingw32/4.5.0/../../../libkernel32.a(dkjeh.o)
 .idata$5       0x6a66d738        0x4 c:/mingw/bin/../lib/gcc/mingw32/4.5.0/../../../libkernel32.a(dkjes00107.o)
                0x6a66d738                _imp__DeleteCriticalSection@4
 .idata$5       0x6a66d73c        0x4 c:/mingw/bin/../lib/gcc/mingw32/4.5.0/../../../libkernel32.a(dkjes00126.o)
                0x6a66d73c                _imp__EnterCriticalSection@4
 .idata$5       0x6a66d740        0x4 c:/mingw/bin/../lib/gcc/mingw32/4.5.0/../../../libkernel32.a(dkjes00214.o)
                0x6a66d740                _imp__FreeLibrary@4
 .idata$5       0x6a66d744        0x4 c:/mingw/bin/../lib/gcc/mingw32/4.5.0/../../../libkernel32.a(dkjes00325.o)
                0x6a66d744                _imp__GetLastError@0
 .idata$5       0x6a66d748        0x4 c:/mingw/bin/../lib/gcc/mingw32/4.5.0/../../../libkernel32.a(dkjes00327.o)
                0x6a66d748                _imp__GetLocaleInfoA@16
 .idata$5       0x6a66d74c        0x4 c:/mingw/bin/../lib/gcc/mingw32/4.5.0/../../../libkernel32.a(dkjes00337.o)
                0x6a66d74c                _imp__GetModuleHandleA@4
 .idata$5       0x6a66d750        0x4 c:/mingw/bin/../lib/gcc/mingw32/4.5.0/../../../libkernel32.a(dkjes00364.o)
                0x6a66d750                _imp__GetProcAddress@8
 .idata$5       0x6a66d754        0x4 c:/mingw/bin/../lib/gcc/mingw32/4.5.0/../../../libkernel32.a(dkjes00492.o)
                0x6a66d754                _imp__InitializeCriticalSection@4
 .idata$5       0x6a66d758        0x4 c:/mingw/bin/../lib/gcc/mingw32/4.5.0/../../../libkernel32.a(dkjes00523.o)
                0x6a66d758                _imp__LeaveCriticalSection@4
 .idata$5       0x6a66d75c        0x4 c:/mingw/bin/../lib/gcc/mingw32/4.5.0/../../../libkernel32.a(dkjes00524.o)
                0x6a66d75c                _imp__LoadLibraryA@4
 .idata$5       0x6a66d760        0x4 c:/mingw/bin/../lib/gcc/mingw32/4.5.0/../../../libkernel32.a(dkjes00765.o)
                0x6a66d760                _imp__TlsGetValue@4
 .idata$5       0x6a66d764        0x4 c:/mingw/bin/../lib/gcc/mingw32/4.5.0/../../../libkernel32.a(dkjes00798.o)
                0x6a66d764                _imp__VirtualProtect@16
 .idata$5       0x6a66d768        0x4 c:/mingw/bin/../lib/gcc/mingw32/4.5.0/../../../libkernel32.a(dkjes00801.o)
                0x6a66d768                _imp__VirtualQuery@12
 .idata$5       0x6a66d76c        0x4 c:/mingw/bin/../lib/gcc/mingw32/4.5.0/../../../libkernel32.a(dkjet.o)
 .idata$5       0x6a66d770        0x0 c:/mingw/bin/../lib/gcc/mingw32/4.5.0/../../../libmoldname.a(dgzlh.o)
 .idata$5       0x6a66d770        0x4 c:/mingw/bin/../lib/gcc/mingw32/4.5.0/../../../libmoldname.a(dgzls00062.o)
                0x6a66d770                _imp__putenv
 .idata$5       0x6a66d774        0x4 c:/mingw/bin/../lib/gcc/mingw32/4.5.0/../../../libmoldname.a(dgzlt.o)
 .idata$5       0x6a66d778        0x0 c:/mingw/bin/../lib/gcc/mingw32/4.5.0/../../../libmsvcrt.a(duymh.o)
 .idata$5       0x6a66d778        0x4 c:/mingw/bin/../lib/gcc/mingw32/4.5.0/../../../libmsvcrt.a(duyms00052.o)
                0x6a66d778                _imp____dllonexit
 .idata$5       0x6a66d77c        0x4 c:/mingw/bin/../lib/gcc/mingw32/4.5.0/../../../libmsvcrt.a(duyms00182.o)
                0x6a66d77c                _imp___errno
 .idata$5       0x6a66d780        0x4 c:/mingw/bin/../lib/gcc/mingw32/4.5.0/../../../libmsvcrt.a(duyms00266.o)
                0x6a66d780                _imp___iob
 .idata$5       0x6a66d784        0x4 c:/mingw/bin/../lib/gcc/mingw32/4.5.0/../../../libmsvcrt.a(duyms00538.o)
                0x6a66d784                _imp___winmajor
 .idata$5       0x6a66d788        0x4 c:/mingw/bin/../lib/gcc/mingw32/4.5.0/../../../libmsvcrt.a(duyms00583.o)
                0x6a66d788                _imp__abort
 .idata$5       0x6a66d78c        0x4 c:/mingw/bin/../lib/gcc/mingw32/4.5.0/../../../libmsvcrt.a(duyms00595.o)
                0x6a66d78c                _imp__calloc
 .idata$5       0x6a66d790        0x4 c:/mingw/bin/../lib/gcc/mingw32/4.5.0/../../../libmsvcrt.a(duyms00610.o)
                0x6a66d790                _imp__fflush
 .idata$5       0x6a66d794        0x4 c:/mingw/bin/../lib/gcc/mingw32/4.5.0/../../../libmsvcrt.a(duyms00616.o)
                0x6a66d794                _imp__floor
 .idata$5       0x6a66d798        0x4 c:/mingw/bin/../lib/gcc/mingw32/4.5.0/../../../libmsvcrt.a(duyms00625.o)
                0x6a66d798                _imp__free
 .idata$5       0x6a66d79c        0x4 c:/mingw/bin/../lib/gcc/mingw32/4.5.0/../../../libmsvcrt.a(duyms00633.o)
                0x6a66d79c                _imp__fwrite
 .idata$5       0x6a66d7a0        0x4 c:/mingw/bin/../lib/gcc/mingw32/4.5.0/../../../libmsvcrt.a(duyms00641.o)
                0x6a66d7a0                _imp__gmtime
 .idata$5       0x6a66d7a4        0x4 c:/mingw/bin/../lib/gcc/mingw32/4.5.0/../../../libmsvcrt.a(duyms00672.o)
                0x6a66d7a4                _imp__localtime
 .idata$5       0x6a66d7a8        0x4 c:/mingw/bin/../lib/gcc/mingw32/4.5.0/../../../libmsvcrt.a(duyms00676.o)
                0x6a66d7a8                _imp__malloc
 .idata$5       0x6a66d7ac        0x4 c:/mingw/bin/../lib/gcc/mingw32/4.5.0/../../../libmsvcrt.a(duyms00682.o)
                0x6a66d7ac                _imp__memcpy
 .idata$5       0x6a66d7b0        0x4 c:/mingw/bin/../lib/gcc/mingw32/4.5.0/../../../libmsvcrt.a(duyms00684.o)
                0x6a66d7b0                _imp__memset
 .idata$5       0x6a66d7b4        0x4 c:/mingw/bin/../lib/gcc/mingw32/4.5.0/../../../libmsvcrt.a(duyms00685.o)
                0x6a66d7b4                _imp__mktime
 .idata$5       0x6a66d7b8        0x4 c:/mingw/bin/../lib/gcc/mingw32/4.5.0/../../../libmsvcrt.a(duyms00712.o)
                0x6a66d7b8                _imp__sscanf
 .idata$5       0x6a66d7bc        0x4 c:/mingw/bin/../lib/gcc/mingw32/4.5.0/../../../libmsvcrt.a(duyms00715.o)
                0x6a66d7bc                _imp__strcmp
 .idata$5       0x6a66d7c0        0x4 c:/mingw/bin/../lib/gcc/mingw32/4.5.0/../../../libmsvcrt.a(duyms00717.o)
                0x6a66d7c0                _imp__strcpy
 .idata$5       0x6a66d7c4        0x4 c:/mingw/bin/../lib/gcc/mingw32/4.5.0/../../../libmsvcrt.a(duyms00720.o)
                0x6a66d7c4                _imp__strftime
 .idata$5       0x6a66d7c8        0x4 c:/mingw/bin/../lib/gcc/mingw32/4.5.0/../../../libmsvcrt.a(duyms00721.o)
                0x6a66d7c8                _imp__strlen
 .idata$5       0x6a66d7cc        0x4 c:/mingw/bin/../lib/gcc/mingw32/4.5.0/../../../libmsvcrt.a(duyms00723.o)
                0x6a66d7cc                _imp__strncmp
 .idata$5       0x6a66d7d0        0x4 c:/mingw/bin/../lib/gcc/mingw32/4.5.0/../../../libmsvcrt.a(duyms00728.o)
                0x6a66d7d0                _imp__strstr
 .idata$5       0x6a66d7d4        0x4 c:/mingw/bin/../lib/gcc/mingw32/4.5.0/../../../libmsvcrt.a(duyms00739.o)
                0x6a66d7d4                _imp__time
 .idata$5       0x6a66d7d8        0x4 c:/mingw/bin/../lib/gcc/mingw32/4.5.0/../../../libmsvcrt.a(duyms00748.o)
                0x6a66d7d8                _imp__vfprintf
 .idata$5       0x6a66d7dc        0x4 c:/mingw/bin/../lib/gcc/mingw32/4.5.0/../../../libmsvcrt.a(duymt.o)
 SORT(*)(.idata$6)
 .idata$6       0x6a66d7e0       0x18 C:/MinGW/msys/1.0/dev/lib/libglib-2.0.dll.a(d000024.o)
 .idata$6       0x6a66d7f8       0x18 C:/MinGW/msys/1.0/dev/lib/libglib-2.0.dll.a(d000036.o)
 .idata$6       0x6a66d810       0x1c C:/MinGW/msys/1.0/dev/lib/libglib-2.0.dll.a(d000040.o)
 .idata$6       0x6a66d82c       0x14 C:/MinGW/msys/1.0/dev/lib/libglib-2.0.dll.a(d000126.o)
 .idata$6       0x6a66d840       0x14 C:/MinGW/msys/1.0/dev/lib/libglib-2.0.dll.a(d000193.o)
 .idata$6       0x6a66d854       0x14 C:/MinGW/msys/1.0/dev/lib/libglib-2.0.dll.a(d000194.o)
 .idata$6       0x6a66d868       0x14 C:/MinGW/msys/1.0/dev/lib/libglib-2.0.dll.a(d000195.o)
 .idata$6       0x6a66d87c       0x10 C:/MinGW/msys/1.0/dev/lib/libglib-2.0.dll.a(d000197.o)
 .idata$6       0x6a66d88c       0x14 C:/MinGW/msys/1.0/dev/lib/libglib-2.0.dll.a(d000198.o)
 .idata$6       0x6a66d8a0       0x18 C:/MinGW/msys/1.0/dev/lib/libglib-2.0.dll.a(d000199.o)
 .idata$6       0x6a66d8b8       0x14 C:/MinGW/msys/1.0/dev/lib/libglib-2.0.dll.a(d000201.o)
 .idata$6       0x6a66d8cc       0x14 C:/MinGW/msys/1.0/dev/lib/libglib-2.0.dll.a(d000205.o)
 .idata$6       0x6a66d8e0       0x14 C:/MinGW/msys/1.0/dev/lib/libglib-2.0.dll.a(d000208.o)
 .idata$6       0x6a66d8f4       0x18 C:/MinGW/msys/1.0/dev/lib/libglib-2.0.dll.a(d000211.o)
 .idata$6       0x6a66d90c       0x14 C:/MinGW/msys/1.0/dev/lib/libglib-2.0.dll.a(d000212.o)
 .idata$6       0x6a66d920       0x14 C:/MinGW/msys/1.0/dev/lib/libglib-2.0.dll.a(d000220.o)
 .idata$6       0x6a66d934       0x14 C:/MinGW/msys/1.0/dev/lib/libglib-2.0.dll.a(d000221.o)
 .idata$6       0x6a66d948       0x14 C:/MinGW/msys/1.0/dev/lib/libglib-2.0.dll.a(d000223.o)
 .idata$6       0x6a66d95c       0x14 C:/MinGW/msys/1.0/dev/lib/libglib-2.0.dll.a(d000229.o)
 .idata$6       0x6a66d970       0x18 C:/MinGW/msys/1.0/dev/lib/libglib-2.0.dll.a(d000230.o)
 .idata$6       0x6a66d988       0x1c C:/MinGW/msys/1.0/dev/lib/libglib-2.0.dll.a(d000231.o)
 .idata$6       0x6a66d9a4       0x18 C:/MinGW/msys/1.0/dev/lib/libglib-2.0.dll.a(d000232.o)
 .idata$6       0x6a66d9bc       0x10 C:/MinGW/msys/1.0/dev/lib/libglib-2.0.dll.a(d000290.o)
 .idata$6       0x6a66d9cc       0x14 C:/MinGW/msys/1.0/dev/lib/libglib-2.0.dll.a(d000291.o)
 .idata$6       0x6a66d9e0       0x18 C:/MinGW/msys/1.0/dev/lib/libglib-2.0.dll.a(d000292.o)
 .idata$6       0x6a66d9f8       0x1c C:/MinGW/msys/1.0/dev/lib/libglib-2.0.dll.a(d000309.o)
 .idata$6       0x6a66da14        0xc C:/MinGW/msys/1.0/dev/lib/libglib-2.0.dll.a(d000324.o)
 .idata$6       0x6a66da20       0x10 C:/MinGW/msys/1.0/dev/lib/libglib-2.0.dll.a(d000345.o)
 .idata$6       0x6a66da30       0x18 C:/MinGW/msys/1.0/dev/lib/libglib-2.0.dll.a(d000346.o)
 .idata$6       0x6a66da48       0x18 C:/MinGW/msys/1.0/dev/lib/libglib-2.0.dll.a(d000348.o)
 .idata$6       0x6a66da60       0x18 C:/MinGW/msys/1.0/dev/lib/libglib-2.0.dll.a(d000353.o)
 .idata$6       0x6a66da78       0x18 C:/MinGW/msys/1.0/dev/lib/libglib-2.0.dll.a(d000359.o)
 .idata$6       0x6a66da90       0x14 C:/MinGW/msys/1.0/dev/lib/libglib-2.0.dll.a(d000361.o)
 .idata$6       0x6a66daa4       0x18 C:/MinGW/msys/1.0/dev/lib/libglib-2.0.dll.a(d000362.o)
 .idata$6       0x6a66dabc       0x18 C:/MinGW/msys/1.0/dev/lib/libglib-2.0.dll.a(d000364.o)
 .idata$6       0x6a66dad4       0x18 C:/MinGW/msys/1.0/dev/lib/libglib-2.0.dll.a(d000368.o)
 .idata$6       0x6a66daec       0x10 C:/MinGW/msys/1.0/dev/lib/libglib-2.0.dll.a(d000505.o)
 .idata$6       0x6a66dafc       0x10 C:/MinGW/msys/1.0/dev/lib/libglib-2.0.dll.a(d000506.o)
 .idata$6       0x6a66db0c       0x10 C:/MinGW/msys/1.0/dev/lib/libglib-2.0.dll.a(d000507.o)
 .idata$6       0x6a66db1c       0x10 C:/MinGW/msys/1.0/dev/lib/libglib-2.0.dll.a(d000509.o)
 .idata$6       0x6a66db2c       0x14 C:/MinGW/msys/1.0/dev/lib/libglib-2.0.dll.a(d000512.o)
 .idata$6       0x6a66db40       0x10 C:/MinGW/msys/1.0/dev/lib/libglib-2.0.dll.a(d000513.o)
 .idata$6       0x6a66db50       0x10 C:/MinGW/msys/1.0/dev/lib/libglib-2.0.dll.a(d000515.o)
 .idata$6       0x6a66db60       0x10 C:/MinGW/msys/1.0/dev/lib/libglib-2.0.dll.a(d000521.o)
 .idata$6       0x6a66db70       0x14 C:/MinGW/msys/1.0/dev/lib/libglib-2.0.dll.a(d000523.o)
 .idata$6       0x6a66db84       0x14 C:/MinGW/msys/1.0/dev/lib/libglib-2.0.dll.a(d000527.o)
 .idata$6       0x6a66db98       0x10 C:/MinGW/msys/1.0/dev/lib/libglib-2.0.dll.a(d000529.o)
 .idata$6       0x6a66dba8       0x18 C:/MinGW/msys/1.0/dev/lib/libglib-2.0.dll.a(d000531.o)
 .idata$6       0x6a66dbc0       0x14 C:/MinGW/msys/1.0/dev/lib/libglib-2.0.dll.a(d000532.o)
 .idata$6       0x6a66dbd4       0x10 C:/MinGW/msys/1.0/dev/lib/libglib-2.0.dll.a(d000533.o)
 .idata$6       0x6a66dbe4       0x14 C:/MinGW/msys/1.0/dev/lib/libglib-2.0.dll.a(d000537.o)
 .idata$6       0x6a66dbf8        0x8 C:/MinGW/msys/1.0/dev/lib/libglib-2.0.dll.a(d000538.o)
 .idata$6       0x6a66dc00        0xc C:/MinGW/msys/1.0/dev/lib/libglib-2.0.dll.a(d000581.o)
 .idata$6       0x6a66dc0c        0xc C:/MinGW/msys/1.0/dev/lib/libglib-2.0.dll.a(d000582.o)
 .idata$6       0x6a66dc18       0x10 C:/MinGW/msys/1.0/dev/lib/libglib-2.0.dll.a(d000583.o)
 .idata$6       0x6a66dc28       0x10 C:/MinGW/msys/1.0/dev/lib/libglib-2.0.dll.a(d000584.o)
 .idata$6       0x6a66dc38       0x18 C:/MinGW/msys/1.0/dev/lib/libglib-2.0.dll.a(d000638.o)
 .idata$6       0x6a66dc50       0x10 C:/MinGW/msys/1.0/dev/lib/libglib-2.0.dll.a(d000642.o)
 .idata$6       0x6a66dc60       0x14 C:/MinGW/msys/1.0/dev/lib/libglib-2.0.dll.a(d000643.o)
 .idata$6       0x6a66dc74       0x10 C:/MinGW/msys/1.0/dev/lib/libglib-2.0.dll.a(d000648.o)
 .idata$6       0x6a66dc84       0x18 C:/MinGW/msys/1.0/dev/lib/libglib-2.0.dll.a(d000649.o)
 .idata$6       0x6a66dc9c       0x18 C:/MinGW/msys/1.0/dev/lib/libglib-2.0.dll.a(d000650.o)
 .idata$6       0x6a66dcb4       0x14 C:/MinGW/msys/1.0/dev/lib/libglib-2.0.dll.a(d000652.o)
 .idata$6       0x6a66dcc8       0x14 C:/MinGW/msys/1.0/dev/lib/libglib-2.0.dll.a(d000655.o)
 .idata$6       0x6a66dcdc       0x10 C:/MinGW/msys/1.0/dev/lib/libglib-2.0.dll.a(d000657.o)
 .idata$6       0x6a66dcec       0x14 C:/MinGW/msys/1.0/dev/lib/libglib-2.0.dll.a(d000658.o)
 .idata$6       0x6a66dd00       0x14 C:/MinGW/msys/1.0/dev/lib/libglib-2.0.dll.a(d000660.o)
 .idata$6       0x6a66dd14       0x14 C:/MinGW/msys/1.0/dev/lib/libglib-2.0.dll.a(d000663.o)
 .idata$6       0x6a66dd28       0x10 C:/MinGW/msys/1.0/dev/lib/libglib-2.0.dll.a(d000664.o)
 .idata$6       0x6a66dd38        0xc C:/MinGW/msys/1.0/dev/lib/libglib-2.0.dll.a(d000712.o)
 .idata$6       0x6a66dd44        0xc C:/MinGW/msys/1.0/dev/lib/libglib-2.0.dll.a(d000714.o)
 .idata$6       0x6a66dd50       0x14 C:/MinGW/msys/1.0/dev/lib/libglib-2.0.dll.a(d000718.o)
 .idata$6       0x6a66dd64       0x14 C:/MinGW/msys/1.0/dev/lib/libglib-2.0.dll.a(d000720.o)
 .idata$6       0x6a66dd78       0x14 C:/MinGW/msys/1.0/dev/lib/libglib-2.0.dll.a(d000721.o)
 .idata$6       0x6a66dd8c       0x14 C:/MinGW/msys/1.0/dev/lib/libglib-2.0.dll.a(d000732.o)
 .idata$6       0x6a66dda0       0x20 C:/MinGW/msys/1.0/dev/lib/libglib-2.0.dll.a(d000736.o)
 .idata$6       0x6a66ddc0       0x18 C:/MinGW/msys/1.0/dev/lib/libglib-2.0.dll.a(d000737.o)
 .idata$6       0x6a66ddd8        0xc C:/MinGW/msys/1.0/dev/lib/libglib-2.0.dll.a(d000795.o)
 .idata$6       0x6a66dde4       0x1c C:/MinGW/msys/1.0/dev/lib/libglib-2.0.dll.a(d000832.o)
 .idata$6       0x6a66de00       0x10 C:/MinGW/msys/1.0/dev/lib/libglib-2.0.dll.a(d000891.o)
 .idata$6       0x6a66de10       0x10 C:/MinGW/msys/1.0/dev/lib/libglib-2.0.dll.a(d000896.o)
 .idata$6       0x6a66de20       0x10 C:/MinGW/msys/1.0/dev/lib/libglib-2.0.dll.a(d000996.o)
 .idata$6       0x6a66de30       0x14 C:/MinGW/msys/1.0/dev/lib/libglib-2.0.dll.a(d000998.o)
 .idata$6       0x6a66de44       0x10 C:/MinGW/msys/1.0/dev/lib/libglib-2.0.dll.a(d000999.o)
 .idata$6       0x6a66de54        0xc C:/MinGW/msys/1.0/dev/lib/libglib-2.0.dll.a(d001004.o)
 .idata$6       0x6a66de60       0x10 C:/MinGW/msys/1.0/dev/lib/libglib-2.0.dll.a(d001006.o)
 .idata$6       0x6a66de70        0xc C:/MinGW/msys/1.0/dev/lib/libglib-2.0.dll.a(d001009.o)
 .idata$6       0x6a66de7c       0x14 C:/MinGW/msys/1.0/dev/lib/libglib-2.0.dll.a(d001010.o)
 .idata$6       0x6a66de90       0x10 C:/MinGW/msys/1.0/dev/lib/libglib-2.0.dll.a(d001035.o)
 .idata$6       0x6a66dea0       0x14 C:/MinGW/msys/1.0/dev/lib/libglib-2.0.dll.a(d001038.o)
 .idata$6       0x6a66deb4       0x10 C:/MinGW/msys/1.0/dev/lib/libglib-2.0.dll.a(d001041.o)
 .idata$6       0x6a66dec4       0x14 C:/MinGW/msys/1.0/dev/lib/libglib-2.0.dll.a(d001212.o)
 .idata$6       0x6a66ded8       0x14 C:/MinGW/msys/1.0/dev/lib/libglib-2.0.dll.a(d001222.o)
 .idata$6       0x6a66deec       0x14 C:/MinGW/msys/1.0/dev/lib/libglib-2.0.dll.a(d001237.o)
 .idata$6       0x6a66df00       0x38 C:/MinGW/msys/1.0/dev/lib/libglib-2.0.dll.a(d001410.o)
 .idata$6       0x6a66df38       0x18 C:/MinGW/msys/1.0/dev/lib/libgmodule-2.0.dll.a(d000001.o)
 .idata$6       0x6a66df50       0x14 C:/MinGW/msys/1.0/dev/lib/libgmodule-2.0.dll.a(d000002.o)
 .idata$6       0x6a66df64       0x14 C:/MinGW/msys/1.0/dev/lib/libgmodule-2.0.dll.a(d000003.o)
 .idata$6       0x6a66df78       0x18 C:/MinGW/msys/1.0/dev/lib/libgmodule-2.0.dll.a(d000006.o)
 .idata$6       0x6a66df90       0x14 C:/MinGW/msys/1.0/dev/lib/libgmodule-2.0.dll.a(d000008.o)
 .idata$6       0x6a66dfa4       0x20 C:/MinGW/msys/1.0/dev/lib/libgobject-2.0.dll.a(d000011.o)
 .idata$6       0x6a66dfc4       0x24 C:/MinGW/msys/1.0/dev/lib/libgobject-2.0.dll.a(d000016.o)
 .idata$6       0x6a66dfe8       0x24 C:/MinGW/msys/1.0/dev/lib/libgobject-2.0.dll.a(d000025.o)
 .idata$6       0x6a66e00c       0x24 C:/MinGW/msys/1.0/dev/lib/libgobject-2.0.dll.a(d000027.o)
 .idata$6       0x6a66e030       0x20 C:/MinGW/msys/1.0/dev/lib/libgobject-2.0.dll.a(d000034.o)
 .idata$6       0x6a66e050       0x1c C:/MinGW/msys/1.0/dev/lib/libgobject-2.0.dll.a(d000060.o)
 .idata$6       0x6a66e06c       0x20 C:/MinGW/msys/1.0/dev/lib/libgobject-2.0.dll.a(d000078.o)
 .idata$6       0x6a66e08c       0x24 C:/MinGW/msys/1.0/dev/lib/libgobject-2.0.dll.a(d000080.o)
 .idata$6       0x6a66e0b0       0x10 C:/MinGW/msys/1.0/dev/lib/libgobject-2.0.dll.a(d000088.o)
 .idata$6       0x6a66e0c0       0x14 C:/MinGW/msys/1.0/dev/lib/libgobject-2.0.dll.a(d000089.o)
 .idata$6       0x6a66e0d4       0x18 C:/MinGW/msys/1.0/dev/lib/libgobject-2.0.dll.a(d000090.o)
 .idata$6       0x6a66e0ec       0x10 C:/MinGW/msys/1.0/dev/lib/libgobject-2.0.dll.a(d000098.o)
 .idata$6       0x6a66e0fc       0x14 C:/MinGW/msys/1.0/dev/lib/libgobject-2.0.dll.a(d000101.o)
 .idata$6       0x6a66e110       0x10 C:/MinGW/msys/1.0/dev/lib/libgobject-2.0.dll.a(d000103.o)
 .idata$6       0x6a66e120       0x10 C:/MinGW/msys/1.0/dev/lib/libgobject-2.0.dll.a(d000108.o)
 .idata$6       0x6a66e130       0x18 C:/MinGW/msys/1.0/dev/lib/libgobject-2.0.dll.a(d000111.o)
 .idata$6       0x6a66e148       0x14 C:/MinGW/msys/1.0/dev/lib/libgobject-2.0.dll.a(d000118.o)
 .idata$6       0x6a66e15c       0x18 C:/MinGW/msys/1.0/dev/lib/libgobject-2.0.dll.a(d000122.o)
 .idata$6       0x6a66e174       0x18 C:/MinGW/msys/1.0/dev/lib/libgobject-2.0.dll.a(d000123.o)
 .idata$6       0x6a66e18c       0x14 C:/MinGW/msys/1.0/dev/lib/libgobject-2.0.dll.a(d000126.o)
 .idata$6       0x6a66e1a0       0x18 C:/MinGW/msys/1.0/dev/lib/libgobject-2.0.dll.a(d000128.o)
 .idata$6       0x6a66e1b8       0x1c C:/MinGW/msys/1.0/dev/lib/libgobject-2.0.dll.a(d000132.o)
 .idata$6       0x6a66e1d4       0x14 C:/MinGW/msys/1.0/dev/lib/libgobject-2.0.dll.a(d000135.o)
 .idata$6       0x6a66e1e8       0x14 C:/MinGW/msys/1.0/dev/lib/libgobject-2.0.dll.a(d000138.o)
 .idata$6       0x6a66e1fc       0x18 C:/MinGW/msys/1.0/dev/lib/libgobject-2.0.dll.a(d000139.o)
 .idata$6       0x6a66e214       0x18 C:/MinGW/msys/1.0/dev/lib/libgobject-2.0.dll.a(d000142.o)
 .idata$6       0x6a66e22c       0x1c C:/MinGW/msys/1.0/dev/lib/libgobject-2.0.dll.a(d000143.o)
 .idata$6       0x6a66e248       0x20 C:/MinGW/msys/1.0/dev/lib/libgobject-2.0.dll.a(d000145.o)
 .idata$6       0x6a66e268       0x1c C:/MinGW/msys/1.0/dev/lib/libgobject-2.0.dll.a(d000146.o)
 .idata$6       0x6a66e284       0x18 C:/MinGW/msys/1.0/dev/lib/libgobject-2.0.dll.a(d000147.o)
 .idata$6       0x6a66e29c       0x1c C:/MinGW/msys/1.0/dev/lib/libgobject-2.0.dll.a(d000148.o)
 .idata$6       0x6a66e2b8       0x14 C:/MinGW/msys/1.0/dev/lib/libgobject-2.0.dll.a(d000149.o)
 .idata$6       0x6a66e2cc       0x1c C:/MinGW/msys/1.0/dev/lib/libgobject-2.0.dll.a(d000151.o)
 .idata$6       0x6a66e2e8       0x20 C:/MinGW/msys/1.0/dev/lib/libgobject-2.0.dll.a(d000152.o)
 .idata$6       0x6a66e308       0x18 C:/MinGW/msys/1.0/dev/lib/libgobject-2.0.dll.a(d000155.o)
 .idata$6       0x6a66e320       0x18 C:/MinGW/msys/1.0/dev/lib/libgobject-2.0.dll.a(d000162.o)
 .idata$6       0x6a66e338       0x1c C:/MinGW/msys/1.0/dev/lib/libgobject-2.0.dll.a(d000163.o)
 .idata$6       0x6a66e354       0x1c C:/MinGW/msys/1.0/dev/lib/libgobject-2.0.dll.a(d000168.o)
 .idata$6       0x6a66e370       0x18 C:/MinGW/msys/1.0/dev/lib/libgobject-2.0.dll.a(d000180.o)
 .idata$6       0x6a66e388       0x1c C:/MinGW/msys/1.0/dev/lib/libgobject-2.0.dll.a(d000181.o)
 .idata$6       0x6a66e3a4       0x10 C:/MinGW/msys/1.0/dev/lib/libgobject-2.0.dll.a(d000182.o)
 .idata$6       0x6a66e3b4       0x18 C:/MinGW/msys/1.0/dev/lib/libgobject-2.0.dll.a(d000183.o)
 .idata$6       0x6a66e3cc       0x24 C:/MinGW/msys/1.0/dev/lib/libgobject-2.0.dll.a(d000192.o)
 .idata$6       0x6a66e3f0       0x28 C:/MinGW/msys/1.0/dev/lib/libgobject-2.0.dll.a(d000194.o)
 .idata$6       0x6a66e418       0x24 C:/MinGW/msys/1.0/dev/lib/libgobject-2.0.dll.a(d000195.o)
 .idata$6       0x6a66e43c       0x10 C:/MinGW/msys/1.0/dev/lib/libgobject-2.0.dll.a(d000200.o)
 .idata$6       0x6a66e44c       0x1c C:/MinGW/msys/1.0/dev/lib/libgobject-2.0.dll.a(d000220.o)
 .idata$6       0x6a66e468       0x20 C:/MinGW/msys/1.0/dev/lib/libgobject-2.0.dll.a(d000223.o)
 .idata$6       0x6a66e488       0x20 C:/MinGW/msys/1.0/dev/lib/libgobject-2.0.dll.a(d000224.o)
 .idata$6       0x6a66e4a8       0x1c C:/MinGW/msys/1.0/dev/lib/libgobject-2.0.dll.a(d000232.o)
 .idata$6       0x6a66e4c4       0x1c C:/MinGW/msys/1.0/dev/lib/libgobject-2.0.dll.a(d000259.o)
 .idata$6       0x6a66e4e0       0x1c C:/MinGW/msys/1.0/dev/lib/libgobject-2.0.dll.a(d000263.o)
 .idata$6       0x6a66e4fc       0x18 C:/MinGW/msys/1.0/dev/lib/libgobject-2.0.dll.a(d000264.o)
 .idata$6       0x6a66e514       0x14 C:/MinGW/msys/1.0/dev/lib/libgobject-2.0.dll.a(d000265.o)
 .idata$6       0x6a66e528       0x10 C:/MinGW/msys/1.0/dev/lib/libgobject-2.0.dll.a(d000266.o)
 .idata$6       0x6a66e538       0x1c C:/MinGW/msys/1.0/dev/lib/libgobject-2.0.dll.a(d000280.o)
 .idata$6       0x6a66e554       0x1c C:/MinGW/msys/1.0/dev/lib/libgobject-2.0.dll.a(d000286.o)
 .idata$6       0x6a66e570       0x10 C:/MinGW/msys/1.0/dev/lib/libgobject-2.0.dll.a(d000298.o)
 .idata$6       0x6a66e580       0x18 C:/MinGW/msys/1.0/dev/lib/libgobject-2.0.dll.a(d000302.o)
 .idata$6       0x6a66e598       0x18 C:/MinGW/msys/1.0/dev/lib/libgobject-2.0.dll.a(d000305.o)
 .idata$6       0x6a66e5b0       0x14 C:/MinGW/msys/1.0/dev/lib/libgobject-2.0.dll.a(d000306.o)
 .idata$6       0x6a66e5c4       0x14 C:/MinGW/msys/1.0/dev/lib/libgobject-2.0.dll.a(d000309.o)
 .idata$6       0x6a66e5d8       0x14 C:/MinGW/msys/1.0/dev/lib/libgobject-2.0.dll.a(d000311.o)
 .idata$6       0x6a66e5ec       0x14 C:/MinGW/msys/1.0/dev/lib/libgobject-2.0.dll.a(d000313.o)
 .idata$6       0x6a66e600       0x14 C:/MinGW/msys/1.0/dev/lib/libgobject-2.0.dll.a(d000315.o)
 .idata$6       0x6a66e614       0x18 C:/MinGW/msys/1.0/dev/lib/libgobject-2.0.dll.a(d000316.o)
 .idata$6       0x6a66e62c       0x18 C:/MinGW/msys/1.0/dev/lib/libgobject-2.0.dll.a(d000318.o)
 .idata$6       0x6a66e644       0x18 C:/MinGW/msys/1.0/dev/lib/libgobject-2.0.dll.a(d000319.o)
 .idata$6       0x6a66e65c       0x14 C:/MinGW/msys/1.0/dev/lib/libgobject-2.0.dll.a(d000320.o)
 .idata$6       0x6a66e670       0x10 C:/MinGW/msys/1.0/dev/lib/libgobject-2.0.dll.a(d000326.o)
 .idata$6       0x6a66e680       0x18 C:/MinGW/msys/1.0/dev/lib/libgobject-2.0.dll.a(d000327.o)
 .idata$6       0x6a66e698       0x18 C:/MinGW/msys/1.0/dev/lib/libgobject-2.0.dll.a(d000330.o)
 .idata$6       0x6a66e6b0       0x14 C:/MinGW/msys/1.0/dev/lib/libgobject-2.0.dll.a(d000331.o)
 .idata$6       0x6a66e6c4       0x14 C:/MinGW/msys/1.0/dev/lib/libgobject-2.0.dll.a(d000335.o)
 .idata$6       0x6a66e6d8       0x14 C:/MinGW/msys/1.0/dev/lib/libgobject-2.0.dll.a(d000337.o)
 .idata$6       0x6a66e6ec       0x14 C:/MinGW/msys/1.0/dev/lib/libgobject-2.0.dll.a(d000340.o)
 .idata$6       0x6a66e700       0x14 C:/MinGW/msys/1.0/dev/lib/libgobject-2.0.dll.a(d000342.o)
 .idata$6       0x6a66e714       0x18 C:/MinGW/msys/1.0/dev/lib/libgobject-2.0.dll.a(d000343.o)
 .idata$6       0x6a66e72c       0x18 C:/MinGW/msys/1.0/dev/lib/libgobject-2.0.dll.a(d000347.o)
 .idata$6       0x6a66e744       0x18 C:/MinGW/msys/1.0/dev/lib/libgobject-2.0.dll.a(d000350.o)
 .idata$6       0x6a66e75c       0x10 C:/MinGW/msys/1.0/dev/lib/libgobject-2.0.dll.a(d000365.o)
 .idata$6       0x6a66e76c       0x24 C:/MinGW/msys/1.0/dev/lib/libintl.dll.a(d000010.o)
 .idata$6       0x6a66e790       0x1c C:/MinGW/msys/1.0/dev/lib/libintl.dll.a(d000011.o)
 .idata$6       0x6a66e7ac       0x14 C:/MinGW/msys/1.0/dev/lib/libintl.dll.a(d000017.o)
 .idata$6       0x6a66e7c0       0x14 C:/MinGW/msys/1.0/dev/lib/libintl.dll.a(d000019.o)
 .idata$6       0x6a66e7d4       0x14 C:/MinGW/msys/1.0/dev/lib/libintl.dll.a(d000022.o)
 .idata$6       0x6a66e7e8       0x18 c:/mingw/bin/../lib/gcc/mingw32/4.5.0/../../../libkernel32.a(dkjes00107.o)
 .idata$6       0x6a66e800       0x18 c:/mingw/bin/../lib/gcc/mingw32/4.5.0/../../../libkernel32.a(dkjes00126.o)
 .idata$6       0x6a66e818        0xe c:/mingw/bin/../lib/gcc/mingw32/4.5.0/../../../libkernel32.a(dkjes00214.o)
 .idata$6       0x6a66e826       0x10 c:/mingw/bin/../lib/gcc/mingw32/4.5.0/../../../libkernel32.a(dkjes00325.o)
 .idata$6       0x6a66e836       0x12 c:/mingw/bin/../lib/gcc/mingw32/4.5.0/../../../libkernel32.a(dkjes00327.o)
 .idata$6       0x6a66e848       0x14 c:/mingw/bin/../lib/gcc/mingw32/4.5.0/../../../libkernel32.a(dkjes00337.o)
 .idata$6       0x6a66e85c       0x12 c:/mingw/bin/../lib/gcc/mingw32/4.5.0/../../../libkernel32.a(dkjes00364.o)
 .idata$6       0x6a66e86e       0x1c c:/mingw/bin/../lib/gcc/mingw32/4.5.0/../../../libkernel32.a(dkjes00492.o)
 .idata$6       0x6a66e88a       0x18 c:/mingw/bin/../lib/gcc/mingw32/4.5.0/../../../libkernel32.a(dkjes00523.o)
 .idata$6       0x6a66e8a2       0x10 c:/mingw/bin/../lib/gcc/mingw32/4.5.0/../../../libkernel32.a(dkjes00524.o)
 .idata$6       0x6a66e8b2        0xe c:/mingw/bin/../lib/gcc/mingw32/4.5.0/../../../libkernel32.a(dkjes00765.o)
 .idata$6       0x6a66e8c0       0x12 c:/mingw/bin/../lib/gcc/mingw32/4.5.0/../../../libkernel32.a(dkjes00798.o)
 .idata$6       0x6a66e8d2       0x10 c:/mingw/bin/../lib/gcc/mingw32/4.5.0/../../../libkernel32.a(dkjes00801.o)
 .idata$6       0x6a66e8e2        0xa c:/mingw/bin/../lib/gcc/mingw32/4.5.0/../../../libmoldname.a(dgzls00062.o)
 .idata$6       0x6a66e8ec        0xe c:/mingw/bin/../lib/gcc/mingw32/4.5.0/../../../libmsvcrt.a(duyms00052.o)
 .idata$6       0x6a66e8fa        0xa c:/mingw/bin/../lib/gcc/mingw32/4.5.0/../../../libmsvcrt.a(duyms00182.o)
 .idata$6       0x6a66e904        0x8 c:/mingw/bin/../lib/gcc/mingw32/4.5.0/../../../libmsvcrt.a(duyms00266.o)
 .idata$6       0x6a66e90c        0xc c:/mingw/bin/../lib/gcc/mingw32/4.5.0/../../../libmsvcrt.a(duyms00538.o)
 .idata$6       0x6a66e918        0x8 c:/mingw/bin/../lib/gcc/mingw32/4.5.0/../../../libmsvcrt.a(duyms00583.o)
 .idata$6       0x6a66e920        0xa c:/mingw/bin/../lib/gcc/mingw32/4.5.0/../../../libmsvcrt.a(duyms00595.o)
 .idata$6       0x6a66e92a        0xa c:/mingw/bin/../lib/gcc/mingw32/4.5.0/../../../libmsvcrt.a(duyms00610.o)
 .idata$6       0x6a66e934        0x8 c:/mingw/bin/../lib/gcc/mingw32/4.5.0/../../../libmsvcrt.a(duyms00616.o)
 .idata$6       0x6a66e93c        0x8 c:/mingw/bin/../lib/gcc/mingw32/4.5.0/../../../libmsvcrt.a(duyms00625.o)
 .idata$6       0x6a66e944        0xa c:/mingw/bin/../lib/gcc/mingw32/4.5.0/../../../libmsvcrt.a(duyms00633.o)
 .idata$6       0x6a66e94e        0xa c:/mingw/bin/../lib/gcc/mingw32/4.5.0/../../../libmsvcrt.a(duyms00641.o)
 .idata$6       0x6a66e958        0xc c:/mingw/bin/../lib/gcc/mingw32/4.5.0/../../../libmsvcrt.a(duyms00672.o)
 .idata$6       0x6a66e964        0xa c:/mingw/bin/../lib/gcc/mingw32/4.5.0/../../../libmsvcrt.a(duyms00676.o)
 .idata$6       0x6a66e96e        0xa c:/mingw/bin/../lib/gcc/mingw32/4.5.0/../../../libmsvcrt.a(duyms00682.o)
 .idata$6       0x6a66e978        0xa c:/mingw/bin/../lib/gcc/mingw32/4.5.0/../../../libmsvcrt.a(duyms00684.o)
 .idata$6       0x6a66e982        0xa c:/mingw/bin/../lib/gcc/mingw32/4.5.0/../../../libmsvcrt.a(duyms00685.o)
 .idata$6       0x6a66e98c        0xa c:/mingw/bin/../lib/gcc/mingw32/4.5.0/../../../libmsvcrt.a(duyms00712.o)
 .idata$6       0x6a66e996        0xa c:/mingw/bin/../lib/gcc/mingw32/4.5.0/../../../libmsvcrt.a(duyms00715.o)
 .idata$6       0x6a66e9a0        0xa c:/mingw/bin/../lib/gcc/mingw32/4.5.0/../../../libmsvcrt.a(duyms00717.o)
 .idata$6       0x6a66e9aa        0xc c:/mingw/bin/../lib/gcc/mingw32/4.5.0/../../../libmsvcrt.a(duyms00720.o)
 .idata$6       0x6a66e9b6        0xa c:/mingw/bin/../lib/gcc/mingw32/4.5.0/../../../libmsvcrt.a(duyms00721.o)
 .idata$6       0x6a66e9c0        0xa c:/mingw/bin/../lib/gcc/mingw32/4.5.0/../../../libmsvcrt.a(duyms00723.o)
 .idata$6       0x6a66e9ca        0xa c:/mingw/bin/../lib/gcc/mingw32/4.5.0/../../../libmsvcrt.a(duyms00728.o)
 .idata$6       0x6a66e9d4        0x8 c:/mingw/bin/../lib/gcc/mingw32/4.5.0/../../../libmsvcrt.a(duyms00739.o)
 .idata$6       0x6a66e9dc        0xc c:/mingw/bin/../lib/gcc/mingw32/4.5.0/../../../libmsvcrt.a(duyms00748.o)
 SORT(*)(.idata$7)
 .idata$7       0x6a66e9e8        0x4 C:/MinGW/msys/1.0/dev/lib/libglib-2.0.dll.a(d000024.o)
 .idata$7       0x6a66e9ec        0x4 C:/MinGW/msys/1.0/dev/lib/libglib-2.0.dll.a(d000036.o)
 .idata$7       0x6a66e9f0        0x4 C:/MinGW/msys/1.0/dev/lib/libglib-2.0.dll.a(d000040.o)
 .idata$7       0x6a66e9f4        0x4 C:/MinGW/msys/1.0/dev/lib/libglib-2.0.dll.a(d000126.o)
 .idata$7       0x6a66e9f8        0x4 C:/MinGW/msys/1.0/dev/lib/libglib-2.0.dll.a(d000193.o)
 .idata$7       0x6a66e9fc        0x4 C:/MinGW/msys/1.0/dev/lib/libglib-2.0.dll.a(d000194.o)
 .idata$7       0x6a66ea00        0x4 C:/MinGW/msys/1.0/dev/lib/libglib-2.0.dll.a(d000195.o)
 .idata$7       0x6a66ea04        0x4 C:/MinGW/msys/1.0/dev/lib/libglib-2.0.dll.a(d000197.o)
 .idata$7       0x6a66ea08        0x4 C:/MinGW/msys/1.0/dev/lib/libglib-2.0.dll.a(d000198.o)
 .idata$7       0x6a66ea0c        0x4 C:/MinGW/msys/1.0/dev/lib/libglib-2.0.dll.a(d000199.o)
 .idata$7       0x6a66ea10        0x4 C:/MinGW/msys/1.0/dev/lib/libglib-2.0.dll.a(d000201.o)
 .idata$7       0x6a66ea14        0x4 C:/MinGW/msys/1.0/dev/lib/libglib-2.0.dll.a(d000205.o)
 .idata$7       0x6a66ea18        0x4 C:/MinGW/msys/1.0/dev/lib/libglib-2.0.dll.a(d000208.o)
 .idata$7       0x6a66ea1c        0x4 C:/MinGW/msys/1.0/dev/lib/libglib-2.0.dll.a(d000211.o)
 .idata$7       0x6a66ea20        0x4 C:/MinGW/msys/1.0/dev/lib/libglib-2.0.dll.a(d000212.o)
 .idata$7       0x6a66ea24        0x4 C:/MinGW/msys/1.0/dev/lib/libglib-2.0.dll.a(d000220.o)
 .idata$7       0x6a66ea28        0x4 C:/MinGW/msys/1.0/dev/lib/libglib-2.0.dll.a(d000221.o)
 .idata$7       0x6a66ea2c        0x4 C:/MinGW/msys/1.0/dev/lib/libglib-2.0.dll.a(d000223.o)
 .idata$7       0x6a66ea30        0x4 C:/MinGW/msys/1.0/dev/lib/libglib-2.0.dll.a(d000229.o)
 .idata$7       0x6a66ea34        0x4 C:/MinGW/msys/1.0/dev/lib/libglib-2.0.dll.a(d000230.o)
 .idata$7       0x6a66ea38        0x4 C:/MinGW/msys/1.0/dev/lib/libglib-2.0.dll.a(d000231.o)
 .idata$7       0x6a66ea3c        0x4 C:/MinGW/msys/1.0/dev/lib/libglib-2.0.dll.a(d000232.o)
 .idata$7       0x6a66ea40        0x4 C:/MinGW/msys/1.0/dev/lib/libglib-2.0.dll.a(d000290.o)
 .idata$7       0x6a66ea44        0x4 C:/MinGW/msys/1.0/dev/lib/libglib-2.0.dll.a(d000291.o)
 .idata$7       0x6a66ea48        0x4 C:/MinGW/msys/1.0/dev/lib/libglib-2.0.dll.a(d000292.o)
 .idata$7       0x6a66ea4c        0x4 C:/MinGW/msys/1.0/dev/lib/libglib-2.0.dll.a(d000309.o)
 .idata$7       0x6a66ea50        0x4 C:/MinGW/msys/1.0/dev/lib/libglib-2.0.dll.a(d000324.o)
 .idata$7       0x6a66ea54        0x4 C:/MinGW/msys/1.0/dev/lib/libglib-2.0.dll.a(d000345.o)
 .idata$7       0x6a66ea58        0x4 C:/MinGW/msys/1.0/dev/lib/libglib-2.0.dll.a(d000346.o)
 .idata$7       0x6a66ea5c        0x4 C:/MinGW/msys/1.0/dev/lib/libglib-2.0.dll.a(d000348.o)
 .idata$7       0x6a66ea60        0x4 C:/MinGW/msys/1.0/dev/lib/libglib-2.0.dll.a(d000353.o)
 .idata$7       0x6a66ea64        0x4 C:/MinGW/msys/1.0/dev/lib/libglib-2.0.dll.a(d000359.o)
 .idata$7       0x6a66ea68        0x4 C:/MinGW/msys/1.0/dev/lib/libglib-2.0.dll.a(d000361.o)
 .idata$7       0x6a66ea6c        0x4 C:/MinGW/msys/1.0/dev/lib/libglib-2.0.dll.a(d000362.o)
 .idata$7       0x6a66ea70        0x4 C:/MinGW/msys/1.0/dev/lib/libglib-2.0.dll.a(d000364.o)
 .idata$7       0x6a66ea74        0x4 C:/MinGW/msys/1.0/dev/lib/libglib-2.0.dll.a(d000368.o)
 .idata$7       0x6a66ea78        0x4 C:/MinGW/msys/1.0/dev/lib/libglib-2.0.dll.a(d000505.o)
 .idata$7       0x6a66ea7c        0x4 C:/MinGW/msys/1.0/dev/lib/libglib-2.0.dll.a(d000506.o)
 .idata$7       0x6a66ea80        0x4 C:/MinGW/msys/1.0/dev/lib/libglib-2.0.dll.a(d000507.o)
 .idata$7       0x6a66ea84        0x4 C:/MinGW/msys/1.0/dev/lib/libglib-2.0.dll.a(d000509.o)
 .idata$7       0x6a66ea88        0x4 C:/MinGW/msys/1.0/dev/lib/libglib-2.0.dll.a(d000512.o)
 .idata$7       0x6a66ea8c        0x4 C:/MinGW/msys/1.0/dev/lib/libglib-2.0.dll.a(d000513.o)
 .idata$7       0x6a66ea90        0x4 C:/MinGW/msys/1.0/dev/lib/libglib-2.0.dll.a(d000515.o)
 .idata$7       0x6a66ea94        0x4 C:/MinGW/msys/1.0/dev/lib/libglib-2.0.dll.a(d000521.o)
 .idata$7       0x6a66ea98        0x4 C:/MinGW/msys/1.0/dev/lib/libglib-2.0.dll.a(d000523.o)
 .idata$7       0x6a66ea9c        0x4 C:/MinGW/msys/1.0/dev/lib/libglib-2.0.dll.a(d000527.o)
 .idata$7       0x6a66eaa0        0x4 C:/MinGW/msys/1.0/dev/lib/libglib-2.0.dll.a(d000529.o)
 .idata$7       0x6a66eaa4        0x4 C:/MinGW/msys/1.0/dev/lib/libglib-2.0.dll.a(d000531.o)
 .idata$7       0x6a66eaa8        0x4 C:/MinGW/msys/1.0/dev/lib/libglib-2.0.dll.a(d000532.o)
 .idata$7       0x6a66eaac        0x4 C:/MinGW/msys/1.0/dev/lib/libglib-2.0.dll.a(d000533.o)
 .idata$7       0x6a66eab0        0x4 C:/MinGW/msys/1.0/dev/lib/libglib-2.0.dll.a(d000537.o)
 .idata$7       0x6a66eab4        0x4 C:/MinGW/msys/1.0/dev/lib/libglib-2.0.dll.a(d000538.o)
 .idata$7       0x6a66eab8        0x4 C:/MinGW/msys/1.0/dev/lib/libglib-2.0.dll.a(d000581.o)
 .idata$7       0x6a66eabc        0x4 C:/MinGW/msys/1.0/dev/lib/libglib-2.0.dll.a(d000582.o)
 .idata$7       0x6a66eac0        0x4 C:/MinGW/msys/1.0/dev/lib/libglib-2.0.dll.a(d000583.o)
 .idata$7       0x6a66eac4        0x4 C:/MinGW/msys/1.0/dev/lib/libglib-2.0.dll.a(d000584.o)
 .idata$7       0x6a66eac8        0x4 C:/MinGW/msys/1.0/dev/lib/libglib-2.0.dll.a(d000638.o)
 .idata$7       0x6a66eacc        0x4 C:/MinGW/msys/1.0/dev/lib/libglib-2.0.dll.a(d000642.o)
 .idata$7       0x6a66ead0        0x4 C:/MinGW/msys/1.0/dev/lib/libglib-2.0.dll.a(d000643.o)
 .idata$7       0x6a66ead4        0x4 C:/MinGW/msys/1.0/dev/lib/libglib-2.0.dll.a(d000648.o)
 .idata$7       0x6a66ead8        0x4 C:/MinGW/msys/1.0/dev/lib/libglib-2.0.dll.a(d000649.o)
 .idata$7       0x6a66eadc        0x4 C:/MinGW/msys/1.0/dev/lib/libglib-2.0.dll.a(d000650.o)
 .idata$7       0x6a66eae0        0x4 C:/MinGW/msys/1.0/dev/lib/libglib-2.0.dll.a(d000652.o)
 .idata$7       0x6a66eae4        0x4 C:/MinGW/msys/1.0/dev/lib/libglib-2.0.dll.a(d000655.o)
 .idata$7       0x6a66eae8        0x4 C:/MinGW/msys/1.0/dev/lib/libglib-2.0.dll.a(d000657.o)
 .idata$7       0x6a66eaec        0x4 C:/MinGW/msys/1.0/dev/lib/libglib-2.0.dll.a(d000658.o)
 .idata$7       0x6a66eaf0        0x4 C:/MinGW/msys/1.0/dev/lib/libglib-2.0.dll.a(d000660.o)
 .idata$7       0x6a66eaf4        0x4 C:/MinGW/msys/1.0/dev/lib/libglib-2.0.dll.a(d000663.o)
 .idata$7       0x6a66eaf8        0x4 C:/MinGW/msys/1.0/dev/lib/libglib-2.0.dll.a(d000664.o)
 .idata$7       0x6a66eafc        0x4 C:/MinGW/msys/1.0/dev/lib/libglib-2.0.dll.a(d000712.o)
 .idata$7       0x6a66eb00        0x4 C:/MinGW/msys/1.0/dev/lib/libglib-2.0.dll.a(d000714.o)
 .idata$7       0x6a66eb04        0x4 C:/MinGW/msys/1.0/dev/lib/libglib-2.0.dll.a(d000718.o)
 .idata$7       0x6a66eb08        0x4 C:/MinGW/msys/1.0/dev/lib/libglib-2.0.dll.a(d000720.o)
 .idata$7       0x6a66eb0c        0x4 C:/MinGW/msys/1.0/dev/lib/libglib-2.0.dll.a(d000721.o)
 .idata$7       0x6a66eb10        0x4 C:/MinGW/msys/1.0/dev/lib/libglib-2.0.dll.a(d000732.o)
 .idata$7       0x6a66eb14        0x4 C:/MinGW/msys/1.0/dev/lib/libglib-2.0.dll.a(d000736.o)
 .idata$7       0x6a66eb18        0x4 C:/MinGW/msys/1.0/dev/lib/libglib-2.0.dll.a(d000737.o)
 .idata$7       0x6a66eb1c        0x4 C:/MinGW/msys/1.0/dev/lib/libglib-2.0.dll.a(d000795.o)
 .idata$7       0x6a66eb20        0x4 C:/MinGW/msys/1.0/dev/lib/libglib-2.0.dll.a(d000832.o)
 .idata$7       0x6a66eb24        0x4 C:/MinGW/msys/1.0/dev/lib/libglib-2.0.dll.a(d000891.o)
 .idata$7       0x6a66eb28        0x4 C:/MinGW/msys/1.0/dev/lib/libglib-2.0.dll.a(d000896.o)
 .idata$7       0x6a66eb2c        0x4 C:/MinGW/msys/1.0/dev/lib/libglib-2.0.dll.a(d000996.o)
 .idata$7       0x6a66eb30        0x4 C:/MinGW/msys/1.0/dev/lib/libglib-2.0.dll.a(d000998.o)
 .idata$7       0x6a66eb34        0x4 C:/MinGW/msys/1.0/dev/lib/libglib-2.0.dll.a(d000999.o)
 .idata$7       0x6a66eb38        0x4 C:/MinGW/msys/1.0/dev/lib/libglib-2.0.dll.a(d001004.o)
 .idata$7       0x6a66eb3c        0x4 C:/MinGW/msys/1.0/dev/lib/libglib-2.0.dll.a(d001006.o)
 .idata$7       0x6a66eb40        0x4 C:/MinGW/msys/1.0/dev/lib/libglib-2.0.dll.a(d001009.o)
 .idata$7       0x6a66eb44        0x4 C:/MinGW/msys/1.0/dev/lib/libglib-2.0.dll.a(d001010.o)
 .idata$7       0x6a66eb48        0x4 C:/MinGW/msys/1.0/dev/lib/libglib-2.0.dll.a(d001035.o)
 .idata$7       0x6a66eb4c        0x4 C:/MinGW/msys/1.0/dev/lib/libglib-2.0.dll.a(d001038.o)
 .idata$7       0x6a66eb50        0x4 C:/MinGW/msys/1.0/dev/lib/libglib-2.0.dll.a(d001041.o)
 .idata$7       0x6a66eb54        0x4 C:/MinGW/msys/1.0/dev/lib/libglib-2.0.dll.a(d001212.o)
 .idata$7       0x6a66eb58        0x4 C:/MinGW/msys/1.0/dev/lib/libglib-2.0.dll.a(d001222.o)
 .idata$7       0x6a66eb5c        0x4 C:/MinGW/msys/1.0/dev/lib/libglib-2.0.dll.a(d001237.o)
 .idata$7       0x6a66eb60        0x4 C:/MinGW/msys/1.0/dev/lib/libglib-2.0.dll.a(d001410.o)
 .idata$7       0x6a66eb64       0x14 C:/MinGW/msys/1.0/dev/lib/libglib-2.0.dll.a(d001426.o)
                0x6a66eb64                libglib_2_0_0_dll_iname
 .idata$7       0x6a66eb78        0x4 C:/MinGW/msys/1.0/dev/lib/libgmodule-2.0.dll.a(d000001.o)
 .idata$7       0x6a66eb7c        0x4 C:/MinGW/msys/1.0/dev/lib/libgmodule-2.0.dll.a(d000002.o)
 .idata$7       0x6a66eb80        0x4 C:/MinGW/msys/1.0/dev/lib/libgmodule-2.0.dll.a(d000003.o)
 .idata$7       0x6a66eb84        0x4 C:/MinGW/msys/1.0/dev/lib/libgmodule-2.0.dll.a(d000006.o)
 .idata$7       0x6a66eb88        0x4 C:/MinGW/msys/1.0/dev/lib/libgmodule-2.0.dll.a(d000008.o)
 .idata$7       0x6a66eb8c       0x18 C:/MinGW/msys/1.0/dev/lib/libgmodule-2.0.dll.a(d000009.o)
                0x6a66eb8c                libgmodule_2_0_0_dll_iname
 .idata$7       0x6a66eba4        0x4 C:/MinGW/msys/1.0/dev/lib/libgobject-2.0.dll.a(d000011.o)
 .idata$7       0x6a66eba8        0x4 C:/MinGW/msys/1.0/dev/lib/libgobject-2.0.dll.a(d000016.o)
 .idata$7       0x6a66ebac        0x4 C:/MinGW/msys/1.0/dev/lib/libgobject-2.0.dll.a(d000025.o)
 .idata$7       0x6a66ebb0        0x4 C:/MinGW/msys/1.0/dev/lib/libgobject-2.0.dll.a(d000027.o)
 .idata$7       0x6a66ebb4        0x4 C:/MinGW/msys/1.0/dev/lib/libgobject-2.0.dll.a(d000034.o)
 .idata$7       0x6a66ebb8        0x4 C:/MinGW/msys/1.0/dev/lib/libgobject-2.0.dll.a(d000060.o)
 .idata$7       0x6a66ebbc        0x4 C:/MinGW/msys/1.0/dev/lib/libgobject-2.0.dll.a(d000078.o)
 .idata$7       0x6a66ebc0        0x4 C:/MinGW/msys/1.0/dev/lib/libgobject-2.0.dll.a(d000080.o)
 .idata$7       0x6a66ebc4        0x4 C:/MinGW/msys/1.0/dev/lib/libgobject-2.0.dll.a(d000088.o)
 .idata$7       0x6a66ebc8        0x4 C:/MinGW/msys/1.0/dev/lib/libgobject-2.0.dll.a(d000089.o)
 .idata$7       0x6a66ebcc        0x4 C:/MinGW/msys/1.0/dev/lib/libgobject-2.0.dll.a(d000090.o)
 .idata$7       0x6a66ebd0        0x4 C:/MinGW/msys/1.0/dev/lib/libgobject-2.0.dll.a(d000098.o)
 .idata$7       0x6a66ebd4        0x4 C:/MinGW/msys/1.0/dev/lib/libgobject-2.0.dll.a(d000101.o)
 .idata$7       0x6a66ebd8        0x4 C:/MinGW/msys/1.0/dev/lib/libgobject-2.0.dll.a(d000103.o)
 .idata$7       0x6a66ebdc        0x4 C:/MinGW/msys/1.0/dev/lib/libgobject-2.0.dll.a(d000108.o)
 .idata$7       0x6a66ebe0        0x4 C:/MinGW/msys/1.0/dev/lib/libgobject-2.0.dll.a(d000111.o)
 .idata$7       0x6a66ebe4        0x4 C:/MinGW/msys/1.0/dev/lib/libgobject-2.0.dll.a(d000118.o)
 .idata$7       0x6a66ebe8        0x4 C:/MinGW/msys/1.0/dev/lib/libgobject-2.0.dll.a(d000122.o)
 .idata$7       0x6a66ebec        0x4 C:/MinGW/msys/1.0/dev/lib/libgobject-2.0.dll.a(d000123.o)
 .idata$7       0x6a66ebf0        0x4 C:/MinGW/msys/1.0/dev/lib/libgobject-2.0.dll.a(d000126.o)
 .idata$7       0x6a66ebf4        0x4 C:/MinGW/msys/1.0/dev/lib/libgobject-2.0.dll.a(d000128.o)
 .idata$7       0x6a66ebf8        0x4 C:/MinGW/msys/1.0/dev/lib/libgobject-2.0.dll.a(d000132.o)
 .idata$7       0x6a66ebfc        0x4 C:/MinGW/msys/1.0/dev/lib/libgobject-2.0.dll.a(d000135.o)
 .idata$7       0x6a66ec00        0x4 C:/MinGW/msys/1.0/dev/lib/libgobject-2.0.dll.a(d000138.o)
 .idata$7       0x6a66ec04        0x4 C:/MinGW/msys/1.0/dev/lib/libgobject-2.0.dll.a(d000139.o)
 .idata$7       0x6a66ec08        0x4 C:/MinGW/msys/1.0/dev/lib/libgobject-2.0.dll.a(d000142.o)
 .idata$7       0x6a66ec0c        0x4 C:/MinGW/msys/1.0/dev/lib/libgobject-2.0.dll.a(d000143.o)
 .idata$7       0x6a66ec10        0x4 C:/MinGW/msys/1.0/dev/lib/libgobject-2.0.dll.a(d000145.o)
 .idata$7       0x6a66ec14        0x4 C:/MinGW/msys/1.0/dev/lib/libgobject-2.0.dll.a(d000146.o)
 .idata$7       0x6a66ec18        0x4 C:/MinGW/msys/1.0/dev/lib/libgobject-2.0.dll.a(d000147.o)
 .idata$7       0x6a66ec1c        0x4 C:/MinGW/msys/1.0/dev/lib/libgobject-2.0.dll.a(d000148.o)
 .idata$7       0x6a66ec20        0x4 C:/MinGW/msys/1.0/dev/lib/libgobject-2.0.dll.a(d000149.o)
 .idata$7       0x6a66ec24        0x4 C:/MinGW/msys/1.0/dev/lib/libgobject-2.0.dll.a(d000151.o)
 .idata$7       0x6a66ec28        0x4 C:/MinGW/msys/1.0/dev/lib/libgobject-2.0.dll.a(d000152.o)
 .idata$7       0x6a66ec2c        0x4 C:/MinGW/msys/1.0/dev/lib/libgobject-2.0.dll.a(d000155.o)
 .idata$7       0x6a66ec30        0x4 C:/MinGW/msys/1.0/dev/lib/libgobject-2.0.dll.a(d000162.o)
 .idata$7       0x6a66ec34        0x4 C:/MinGW/msys/1.0/dev/lib/libgobject-2.0.dll.a(d000163.o)
 .idata$7       0x6a66ec38        0x4 C:/MinGW/msys/1.0/dev/lib/libgobject-2.0.dll.a(d000168.o)
 .idata$7       0x6a66ec3c        0x4 C:/MinGW/msys/1.0/dev/lib/libgobject-2.0.dll.a(d000180.o)
 .idata$7       0x6a66ec40        0x4 C:/MinGW/msys/1.0/dev/lib/libgobject-2.0.dll.a(d000181.o)
 .idata$7       0x6a66ec44        0x4 C:/MinGW/msys/1.0/dev/lib/libgobject-2.0.dll.a(d000182.o)
 .idata$7       0x6a66ec48        0x4 C:/MinGW/msys/1.0/dev/lib/libgobject-2.0.dll.a(d000183.o)
 .idata$7       0x6a66ec4c        0x4 C:/MinGW/msys/1.0/dev/lib/libgobject-2.0.dll.a(d000192.o)
 .idata$7       0x6a66ec50        0x4 C:/MinGW/msys/1.0/dev/lib/libgobject-2.0.dll.a(d000194.o)
 .idata$7       0x6a66ec54        0x4 C:/MinGW/msys/1.0/dev/lib/libgobject-2.0.dll.a(d000195.o)
 .idata$7       0x6a66ec58        0x4 C:/MinGW/msys/1.0/dev/lib/libgobject-2.0.dll.a(d000200.o)
 .idata$7       0x6a66ec5c        0x4 C:/MinGW/msys/1.0/dev/lib/libgobject-2.0.dll.a(d000220.o)
 .idata$7       0x6a66ec60        0x4 C:/MinGW/msys/1.0/dev/lib/libgobject-2.0.dll.a(d000223.o)
 .idata$7       0x6a66ec64        0x4 C:/MinGW/msys/1.0/dev/lib/libgobject-2.0.dll.a(d000224.o)
 .idata$7       0x6a66ec68        0x4 C:/MinGW/msys/1.0/dev/lib/libgobject-2.0.dll.a(d000232.o)
 .idata$7       0x6a66ec6c        0x4 C:/MinGW/msys/1.0/dev/lib/libgobject-2.0.dll.a(d000259.o)
 .idata$7       0x6a66ec70        0x4 C:/MinGW/msys/1.0/dev/lib/libgobject-2.0.dll.a(d000263.o)
 .idata$7       0x6a66ec74        0x4 C:/MinGW/msys/1.0/dev/lib/libgobject-2.0.dll.a(d000264.o)
 .idata$7       0x6a66ec78        0x4 C:/MinGW/msys/1.0/dev/lib/libgobject-2.0.dll.a(d000265.o)
 .idata$7       0x6a66ec7c        0x4 C:/MinGW/msys/1.0/dev/lib/libgobject-2.0.dll.a(d000266.o)
 .idata$7       0x6a66ec80        0x4 C:/MinGW/msys/1.0/dev/lib/libgobject-2.0.dll.a(d000280.o)
 .idata$7       0x6a66ec84        0x4 C:/MinGW/msys/1.0/dev/lib/libgobject-2.0.dll.a(d000286.o)
 .idata$7       0x6a66ec88        0x4 C:/MinGW/msys/1.0/dev/lib/libgobject-2.0.dll.a(d000298.o)
 .idata$7       0x6a66ec8c        0x4 C:/MinGW/msys/1.0/dev/lib/libgobject-2.0.dll.a(d000302.o)
 .idata$7       0x6a66ec90        0x4 C:/MinGW/msys/1.0/dev/lib/libgobject-2.0.dll.a(d000305.o)
 .idata$7       0x6a66ec94        0x4 C:/MinGW/msys/1.0/dev/lib/libgobject-2.0.dll.a(d000306.o)
 .idata$7       0x6a66ec98        0x4 C:/MinGW/msys/1.0/dev/lib/libgobject-2.0.dll.a(d000309.o)
 .idata$7       0x6a66ec9c        0x4 C:/MinGW/msys/1.0/dev/lib/libgobject-2.0.dll.a(d000311.o)
 .idata$7       0x6a66eca0        0x4 C:/MinGW/msys/1.0/dev/lib/libgobject-2.0.dll.a(d000313.o)
 .idata$7       0x6a66eca4        0x4 C:/MinGW/msys/1.0/dev/lib/libgobject-2.0.dll.a(d000315.o)
 .idata$7       0x6a66eca8        0x4 C:/MinGW/msys/1.0/dev/lib/libgobject-2.0.dll.a(d000316.o)
 .idata$7       0x6a66ecac        0x4 C:/MinGW/msys/1.0/dev/lib/libgobject-2.0.dll.a(d000318.o)
 .idata$7       0x6a66ecb0        0x4 C:/MinGW/msys/1.0/dev/lib/libgobject-2.0.dll.a(d000319.o)
 .idata$7       0x6a66ecb4        0x4 C:/MinGW/msys/1.0/dev/lib/libgobject-2.0.dll.a(d000320.o)
 .idata$7       0x6a66ecb8        0x4 C:/MinGW/msys/1.0/dev/lib/libgobject-2.0.dll.a(d000326.o)
 .idata$7       0x6a66ecbc        0x4 C:/MinGW/msys/1.0/dev/lib/libgobject-2.0.dll.a(d000327.o)
 .idata$7       0x6a66ecc0        0x4 C:/MinGW/msys/1.0/dev/lib/libgobject-2.0.dll.a(d000330.o)
 .idata$7       0x6a66ecc4        0x4 C:/MinGW/msys/1.0/dev/lib/libgobject-2.0.dll.a(d000331.o)
 .idata$7       0x6a66ecc8        0x4 C:/MinGW/msys/1.0/dev/lib/libgobject-2.0.dll.a(d000335.o)
 .idata$7       0x6a66eccc        0x4 C:/MinGW/msys/1.0/dev/lib/libgobject-2.0.dll.a(d000337.o)
 .idata$7       0x6a66ecd0        0x4 C:/MinGW/msys/1.0/dev/lib/libgobject-2.0.dll.a(d000340.o)
 .idata$7       0x6a66ecd4        0x4 C:/MinGW/msys/1.0/dev/lib/libgobject-2.0.dll.a(d000342.o)
 .idata$7       0x6a66ecd8        0x4 C:/MinGW/msys/1.0/dev/lib/libgobject-2.0.dll.a(d000343.o)
 .idata$7       0x6a66ecdc        0x4 C:/MinGW/msys/1.0/dev/lib/libgobject-2.0.dll.a(d000347.o)
 .idata$7       0x6a66ece0        0x4 C:/MinGW/msys/1.0/dev/lib/libgobject-2.0.dll.a(d000350.o)
 .idata$7       0x6a66ece4        0x4 C:/MinGW/msys/1.0/dev/lib/libgobject-2.0.dll.a(d000365.o)
 .idata$7       0x6a66ece8       0x18 C:/MinGW/msys/1.0/dev/lib/libgobject-2.0.dll.a(d000368.o)
                0x6a66ece8                libgobject_2_0_0_dll_iname
 .idata$7       0x6a66ed00        0x4 C:/MinGW/msys/1.0/dev/lib/libintl.dll.a(d000010.o)
 .idata$7       0x6a66ed04        0x4 C:/MinGW/msys/1.0/dev/lib/libintl.dll.a(d000011.o)
 .idata$7       0x6a66ed08        0x4 C:/MinGW/msys/1.0/dev/lib/libintl.dll.a(d000017.o)
 .idata$7       0x6a66ed0c        0x4 C:/MinGW/msys/1.0/dev/lib/libintl.dll.a(d000019.o)
 .idata$7       0x6a66ed10        0x4 C:/MinGW/msys/1.0/dev/lib/libintl.dll.a(d000022.o)
 .idata$7       0x6a66ed14        0xc C:/MinGW/msys/1.0/dev/lib/libintl.dll.a(d000031.o)
                0x6a66ed14                intl_dll_iname
 .idata$7       0x6a66ed20        0x4 c:/mingw/bin/../lib/gcc/mingw32/4.5.0/../../../libkernel32.a(dkjes00107.o)
 .idata$7       0x6a66ed24        0x4 c:/mingw/bin/../lib/gcc/mingw32/4.5.0/../../../libkernel32.a(dkjes00126.o)
 .idata$7       0x6a66ed28        0x4 c:/mingw/bin/../lib/gcc/mingw32/4.5.0/../../../libkernel32.a(dkjes00214.o)
 .idata$7       0x6a66ed2c        0x4 c:/mingw/bin/../lib/gcc/mingw32/4.5.0/../../../libkernel32.a(dkjes00325.o)
 .idata$7       0x6a66ed30        0x4 c:/mingw/bin/../lib/gcc/mingw32/4.5.0/../../../libkernel32.a(dkjes00327.o)
 .idata$7       0x6a66ed34        0x4 c:/mingw/bin/../lib/gcc/mingw32/4.5.0/../../../libkernel32.a(dkjes00337.o)
 .idata$7       0x6a66ed38        0x4 c:/mingw/bin/../lib/gcc/mingw32/4.5.0/../../../libkernel32.a(dkjes00364.o)
 .idata$7       0x6a66ed3c        0x4 c:/mingw/bin/../lib/gcc/mingw32/4.5.0/../../../libkernel32.a(dkjes00492.o)
 .idata$7       0x6a66ed40        0x4 c:/mingw/bin/../lib/gcc/mingw32/4.5.0/../../../libkernel32.a(dkjes00523.o)
 .idata$7       0x6a66ed44        0x4 c:/mingw/bin/../lib/gcc/mingw32/4.5.0/../../../libkernel32.a(dkjes00524.o)
 .idata$7       0x6a66ed48        0x4 c:/mingw/bin/../lib/gcc/mingw32/4.5.0/../../../libkernel32.a(dkjes00765.o)
 .idata$7       0x6a66ed4c        0x4 c:/mingw/bin/../lib/gcc/mingw32/4.5.0/../../../libkernel32.a(dkjes00798.o)
 .idata$7       0x6a66ed50        0x4 c:/mingw/bin/../lib/gcc/mingw32/4.5.0/../../../libkernel32.a(dkjes00801.o)
 .idata$7       0x6a66ed54       0x10 c:/mingw/bin/../lib/gcc/mingw32/4.5.0/../../../libkernel32.a(dkjet.o)
                0x6a66ed54                _libkernel32_a_iname
 .idata$7       0x6a66ed64        0x4 c:/mingw/bin/../lib/gcc/mingw32/4.5.0/../../../libmoldname.a(dgzls00062.o)
 .idata$7       0x6a66ed68        0xc c:/mingw/bin/../lib/gcc/mingw32/4.5.0/../../../libmoldname.a(dgzlt.o)
                0x6a66ed68                _libmoldname_a_iname
 .idata$7       0x6a66ed74        0x4 c:/mingw/bin/../lib/gcc/mingw32/4.5.0/../../../libmsvcrt.a(duyms00052.o)
 .idata$7       0x6a66ed78        0x4 c:/mingw/bin/../lib/gcc/mingw32/4.5.0/../../../libmsvcrt.a(duyms00182.o)
 .idata$7       0x6a66ed7c        0x4 c:/mingw/bin/../lib/gcc/mingw32/4.5.0/../../../libmsvcrt.a(duyms00266.o)
 .idata$7       0x6a66ed80        0x4 c:/mingw/bin/../lib/gcc/mingw32/4.5.0/../../../libmsvcrt.a(duyms00538.o)
 .idata$7       0x6a66ed84        0x4 c:/mingw/bin/../lib/gcc/mingw32/4.5.0/../../../libmsvcrt.a(duyms00583.o)
 .idata$7       0x6a66ed88        0x4 c:/mingw/bin/../lib/gcc/mingw32/4.5.0/../../../libmsvcrt.a(duyms00595.o)
 .idata$7       0x6a66ed8c        0x4 c:/mingw/bin/../lib/gcc/mingw32/4.5.0/../../../libmsvcrt.a(duyms00610.o)
 .idata$7       0x6a66ed90        0x4 c:/mingw/bin/../lib/gcc/mingw32/4.5.0/../../../libmsvcrt.a(duyms00616.o)
 .idata$7       0x6a66ed94        0x4 c:/mingw/bin/../lib/gcc/mingw32/4.5.0/../../../libmsvcrt.a(duyms00625.o)
 .idata$7       0x6a66ed98        0x4 c:/mingw/bin/../lib/gcc/mingw32/4.5.0/../../../libmsvcrt.a(duyms00633.o)
 .idata$7       0x6a66ed9c        0x4 c:/mingw/bin/../lib/gcc/mingw32/4.5.0/../../../libmsvcrt.a(duyms00641.o)
 .idata$7       0x6a66eda0        0x4 c:/mingw/bin/../lib/gcc/mingw32/4.5.0/../../../libmsvcrt.a(duyms00672.o)
 .idata$7       0x6a66eda4        0x4 c:/mingw/bin/../lib/gcc/mingw32/4.5.0/../../../libmsvcrt.a(duyms00676.o)
 .idata$7       0x6a66eda8        0x4 c:/mingw/bin/../lib/gcc/mingw32/4.5.0/../../../libmsvcrt.a(duyms00682.o)
 .idata$7       0x6a66edac        0x4 c:/mingw/bin/../lib/gcc/mingw32/4.5.0/../../../libmsvcrt.a(duyms00684.o)
 .idata$7       0x6a66edb0        0x4 c:/mingw/bin/../lib/gcc/mingw32/4.5.0/../../../libmsvcrt.a(duyms00685.o)
 .idata$7       0x6a66edb4        0x4 c:/mingw/bin/../lib/gcc/mingw32/4.5.0/../../../libmsvcrt.a(duyms00712.o)
 .idata$7       0x6a66edb8        0x4 c:/mingw/bin/../lib/gcc/mingw32/4.5.0/../../../libmsvcrt.a(duyms00715.o)
 .idata$7       0x6a66edbc        0x4 c:/mingw/bin/../lib/gcc/mingw32/4.5.0/../../../libmsvcrt.a(duyms00717.o)
 .idata$7       0x6a66edc0        0x4 c:/mingw/bin/../lib/gcc/mingw32/4.5.0/../../../libmsvcrt.a(duyms00720.o)
 .idata$7       0x6a66edc4        0x4 c:/mingw/bin/../lib/gcc/mingw32/4.5.0/../../../libmsvcrt.a(duyms00721.o)
 .idata$7       0x6a66edc8        0x4 c:/mingw/bin/../lib/gcc/mingw32/4.5.0/../../../libmsvcrt.a(duyms00723.o)
 .idata$7       0x6a66edcc        0x4 c:/mingw/bin/../lib/gcc/mingw32/4.5.0/../../../libmsvcrt.a(duyms00728.o)
 .idata$7       0x6a66edd0        0x4 c:/mingw/bin/../lib/gcc/mingw32/4.5.0/../../../libmsvcrt.a(duyms00739.o)
 .idata$7       0x6a66edd4        0x4 c:/mingw/bin/../lib/gcc/mingw32/4.5.0/../../../libmsvcrt.a(duyms00748.o)
 .idata$7       0x6a66edd8        0xc c:/mingw/bin/../lib/gcc/mingw32/4.5.0/../../../libmsvcrt.a(duymt.o)
                0x6a66edd8                _libmsvcrt_a_iname

.CRT            0x6a66f000      0x200
                0x6a66f000                ___crt_xc_start__ = .
 *(SORT(.CRT$XC*))
                0x6a66f000                ___crt_xc_end__ = .
                0x6a66f000                ___crt_xi_start__ = .
 *(SORT(.CRT$XI*))
                0x6a66f000                ___crt_xi_end__ = .
                0x6a66f000                ___crt_xl_start__ = .
 *(SORT(.CRT$XL*))
 .CRT$XLA       0x6a66f000        0x4 c:/mingw/bin/../lib/gcc/mingw32/4.5.0/../../../libmingw32.a(tlssup.o)
                0x6a66f000                __xl_a
 .CRT$XLC       0x6a66f004        0x4 c:/mingw/bin/../lib/gcc/mingw32/4.5.0/../../../libmingw32.a(tlssup.o)
                0x6a66f004                __xl_c
 .CRT$XLD       0x6a66f008        0x4 c:/mingw/bin/../lib/gcc/mingw32/4.5.0/../../../libmingw32.a(tlssup.o)
                0x6a66f008                __xl_d
 .CRT$XLZ       0x6a66f00c        0x4 c:/mingw/bin/../lib/gcc/mingw32/4.5.0/../../../libmingw32.a(tlssup.o)
                0x6a66f00c                __xl_z
                0x6a66f010                ___crt_xp_start__ = .
 *(SORT(.CRT$XP*))
                0x6a66f010                ___crt_xp_end__ = .
                0x6a66f010                ___crt_xt_start__ = .
 *(SORT(.CRT$XT*))
                0x6a66f010                ___crt_xt_end__ = .
 .CRT$XDA       0x6a66f010        0x4 c:/mingw/bin/../lib/gcc/mingw32/4.5.0/../../../libmingw32.a(tlssup.o)
 .CRT$XDZ       0x6a66f014        0x4 c:/mingw/bin/../lib/gcc/mingw32/4.5.0/../../../libmingw32.a(tlssup.o)

.tls            0x6a670000      0x200
                0x6a670000                ___tls_start__ = .
 *(.tls)
 .tls           0x6a670000       0x18 c:/mingw/bin/../lib/gcc/mingw32/4.5.0/../../../libmingw32.a(tlssup.o)
                0x6a670000                _tls_used
 *(.tls$)
 *(SORT(.tls$*))
 .tls$AAA       0x6a670018        0x4 c:/mingw/bin/../lib/gcc/mingw32/4.5.0/../../../libmingw32.a(tlssup.o)
                0x6a670018                _tls_start
 .tls$ZZZ       0x6a67001c        0x4 c:/mingw/bin/../lib/gcc/mingw32/4.5.0/../../../libmingw32.a(tlssup.o)
                0x6a67001c                _tls_end
                0x6a670020                ___tls_end__ = .

.endjunk        0x6a671000        0x0
                0x6a671000                PROVIDE (end, .)
                0x6a671000                PROVIDE (_end, .)
                0x6a671000                __end__ = .

.rsrc
 *(.rsrc)
 *(SORT(.rsrc$*))

.reloc          0x6a671000     0x1600
 *(.reloc)
 .reloc         0x6a671000     0x14ac dll stuff

.stab
 *(.stab)

.stabstr
 *(.stabstr)

.debug_aranges
 *(.debug_aranges)

.debug_pubnames
 *(.debug_pubnames)

.debug_pubtypes
 *(.debug_pubtypes)

.debug_info
 *(.debug_info)
 *(.gnu.linkonce.wi.*)

.debug_abbrev
 *(.debug_abbrev)

.debug_line
 *(.debug_line)

.debug_frame
 *(.debug_frame)

.debug_str
 *(.debug_str)

.debug_loc
 *(.debug_loc)

.debug_macinfo
 *(.debug_macinfo)

.debug_weaknames
 *(.debug_weaknames)

.debug_funcnames
 *(.debug_funcnames)

.debug_typenames
 *(.debug_typenames)

.debug_varnames
 *(.debug_varnames)

.debug_ranges
 *(.debug_ranges)
OUTPUT(libplanner-1.dll pei-i386)
LOAD dll stuff

交叉引用表

符号                                            文件
.weak.__Jv_RegisterClasses.___gcc_register_frame  c:/mingw/bin/../lib/gcc/mingw32/4.5.0/crtbegin.o
.weak.___deregister_frame_info.___gcc_register_frame c:/mingw/bin/../lib/gcc/mingw32/4.5.0/crtbegin.o
.weak.___register_frame_info.___gcc_register_frame c:/mingw/bin/../lib/gcc/mingw32/4.5.0/crtbegin.o
DeleteCriticalSection@4                           c:/mingw/bin/../lib/gcc/mingw32/4.5.0/../../../libkernel32.a(dkjes00107.o)
                                                  c:/mingw/bin/../lib/gcc/mingw32/4.5.0/../../../libmingw32.a(tlsthrd.o)
DllMain@12                                        c:/mingw/bin/../lib/gcc/mingw32/4.5.0/../../../libmingw32.a(dllmain.o)
                                                  c:/mingw/bin/../lib/gcc/mingw32/4.5.0/../../../dllcrt2.o
DllMainCRTStartup@12                              c:/mingw/bin/../lib/gcc/mingw32/4.5.0/../../../dllcrt2.o
EnterCriticalSection@4                            c:/mingw/bin/../lib/gcc/mingw32/4.5.0/../../../libkernel32.a(dkjes00126.o)
                                                  c:/mingw/bin/../lib/gcc/mingw32/4.5.0/../../../libmingw32.a(tlsthrd.o)
FreeLibrary@4                                     c:/mingw/bin/../lib/gcc/mingw32/4.5.0/../../../libkernel32.a(dkjes00214.o)
                                                  c:/mingw/bin/../lib/gcc/mingw32/4.5.0/../../../libmingw32.a(tlssup.o)
GetLastError@0                                    c:/mingw/bin/../lib/gcc/mingw32/4.5.0/../../../libkernel32.a(dkjes00325.o)
                                                  c:/mingw/bin/../lib/gcc/mingw32/4.5.0/../../../libmingw32.a(tlsthrd.o)
GetLocaleInfoA@16                                 c:/mingw/bin/../lib/gcc/mingw32/4.5.0/../../../libkernel32.a(dkjes00327.o)
                                                  mrp-time.o
GetModuleHandleA@4                                c:/mingw/bin/../lib/gcc/mingw32/4.5.0/../../../libkernel32.a(dkjes00337.o)
                                                  c:/mingw/bin/../lib/gcc/mingw32/4.5.0/crtbegin.o
GetProcAddress@8                                  c:/mingw/bin/../lib/gcc/mingw32/4.5.0/../../../libkernel32.a(dkjes00364.o)
                                                  c:/mingw/bin/../lib/gcc/mingw32/4.5.0/../../../libmingw32.a(tlssup.o)
                                                  c:/mingw/bin/../lib/gcc/mingw32/4.5.0/crtbegin.o
InitializeCriticalSection@4                       c:/mingw/bin/../lib/gcc/mingw32/4.5.0/../../../libkernel32.a(dkjes00492.o)
                                                  c:/mingw/bin/../lib/gcc/mingw32/4.5.0/../../../libmingw32.a(tlsthrd.o)
LeaveCriticalSection@4                            c:/mingw/bin/../lib/gcc/mingw32/4.5.0/../../../libkernel32.a(dkjes00523.o)
                                                  c:/mingw/bin/../lib/gcc/mingw32/4.5.0/../../../libmingw32.a(tlsthrd.o)
LoadLibraryA@4                                    c:/mingw/bin/../lib/gcc/mingw32/4.5.0/../../../libkernel32.a(dkjes00524.o)
                                                  c:/mingw/bin/../lib/gcc/mingw32/4.5.0/../../../libmingw32.a(tlssup.o)
PROJECTNUMBER                                     mrp-task-manager.o
                                                  mrp-project.o
TlsGetValue@4                                     c:/mingw/bin/../lib/gcc/mingw32/4.5.0/../../../libkernel32.a(dkjes00765.o)
                                                  c:/mingw/bin/../lib/gcc/mingw32/4.5.0/../../../libmingw32.a(tlsthrd.o)
VirtualProtect@16                                 c:/mingw/bin/../lib/gcc/mingw32/4.5.0/../../../libkernel32.a(dkjes00798.o)
                                                  c:/mingw/bin/../lib/gcc/mingw32/4.5.0/../../../libmingw32.a(pseudo-reloc.o)
VirtualQuery@12                                   c:/mingw/bin/../lib/gcc/mingw32/4.5.0/../../../libkernel32.a(dkjes00801.o)
                                                  c:/mingw/bin/../lib/gcc/mingw32/4.5.0/../../../libmingw32.a(pseudo-reloc.o)
_CRT_MT                                           c:/mingw/bin/../lib/gcc/mingw32/4.5.0/../../../libmingw32.a(crtst.o)
                                                  c:/mingw/bin/../lib/gcc/mingw32/4.5.0/../../../libmingw32.a(tlssup.o)
_Jv_RegisterClasses                               c:/mingw/bin/../lib/gcc/mingw32/4.5.0/crtbegin.o
__CTOR_LIST__                                     c:/mingw/bin/../lib/gcc/mingw32/4.5.0/libgcc.a(_ctors.o)
                                                  c:/mingw/bin/../lib/gcc/mingw32/4.5.0/../../../libmingw32.a(gccmain.o)
__DTOR_LIST__                                     c:/mingw/bin/../lib/gcc/mingw32/4.5.0/libgcc.a(_ctors.o)
                                                  c:/mingw/bin/../lib/gcc/mingw32/4.5.0/../../../libmingw32.a(gccmain.o)
__RUNTIME_PSEUDO_RELOC_LIST_END__                 c:/mingw/bin/../lib/gcc/mingw32/4.5.0/../../../libmingw32.a(pseudo-reloc-list.o)
                                                  c:/mingw/bin/../lib/gcc/mingw32/4.5.0/../../../libmingw32.a(pseudo-reloc.o)
__RUNTIME_PSEUDO_RELOC_LIST__                     c:/mingw/bin/../lib/gcc/mingw32/4.5.0/../../../libmingw32.a(pseudo-reloc-list.o)
                                                  c:/mingw/bin/../lib/gcc/mingw32/4.5.0/../../../libmingw32.a(pseudo-reloc.o)
___w64_mingwthr_add_key_dtor                      c:/mingw/bin/../lib/gcc/mingw32/4.5.0/../../../libmingw32.a(tlsthrd.o)
___w64_mingwthr_remove_key_dtor                   c:/mingw/bin/../lib/gcc/mingw32/4.5.0/../../../libmingw32.a(tlsthrd.o)
__chkstk                                          c:/mingw/bin/../lib/gcc/mingw32/4.5.0/libgcc.a(_chkstk.o)
                                                  mrp-task-manager.o
__deregister_frame_info                           c:/mingw/bin/../lib/gcc/mingw32/4.5.0/crtbegin.o
__divdi3                                          c:/mingw/bin/../lib/gcc/mingw32/4.5.0/libgcc.a(_divdi3.o)
                                                  mrp-time.o
__dllonexit                                       c:/mingw/bin/../lib/gcc/mingw32/4.5.0/../../../libmsvcrt.a(duyms00052.o)
                                                  c:/mingw/bin/../lib/gcc/mingw32/4.5.0/../../../dllcrt2.o
__do_global_ctors                                 c:/mingw/bin/../lib/gcc/mingw32/4.5.0/../../../libmingw32.a(gccmain.o)
__do_global_dtors                                 c:/mingw/bin/../lib/gcc/mingw32/4.5.0/../../../libmingw32.a(gccmain.o)
__dyn_tls_init@12                                 c:/mingw/bin/../lib/gcc/mingw32/4.5.0/../../../libmingw32.a(tlssup.o)
__dyn_tls_init_callback                           c:/mingw/bin/../lib/gcc/mingw32/4.5.0/../../../libmingw32.a(tlssup.o)
                                                  c:/mingw/bin/../lib/gcc/mingw32/4.5.0/../../../dllcrt2.o
__gcc_deregister_frame                            c:/mingw/bin/../lib/gcc/mingw32/4.5.0/crtbegin.o
                                                  c:/mingw/bin/../lib/gcc/mingw32/4.5.0/crtend.o
__gcc_register_frame                              c:/mingw/bin/../lib/gcc/mingw32/4.5.0/crtbegin.o
                                                  c:/mingw/bin/../lib/gcc/mingw32/4.5.0/crtend.o
__main                                            c:/mingw/bin/../lib/gcc/mingw32/4.5.0/../../../libmingw32.a(gccmain.o)
                                                  c:/mingw/bin/../lib/gcc/mingw32/4.5.0/../../../dllcrt2.o
__mingw_TLScallback                               c:/mingw/bin/../lib/gcc/mingw32/4.5.0/../../../libmingw32.a(tlsthrd.o)
                                                  c:/mingw/bin/../lib/gcc/mingw32/4.5.0/../../../libmingw32.a(tlssup.o)
__mingw_gMTKeyDtor                                c:/mingw/bin/../lib/gcc/mingw32/4.5.0/../../../libmingw32.a(tlssup.o)
__mingw_gMTRemoveKeyDtor                          c:/mingw/bin/../lib/gcc/mingw32/4.5.0/../../../libmingw32.a(tlssup.o)
__mingw_usemthread_dll                            c:/mingw/bin/../lib/gcc/mingw32/4.5.0/../../../libmingw32.a(tlssup.o)
__moddi3                                          c:/mingw/bin/../lib/gcc/mingw32/4.5.0/libgcc.a(_moddi3.o)
                                                  mrp-time.o
__register_frame_info                             c:/mingw/bin/../lib/gcc/mingw32/4.5.0/crtbegin.o
__tlregdtor                                       c:/mingw/bin/../lib/gcc/mingw32/4.5.0/../../../libmingw32.a(tlssup.o)
__xl_a                                            c:/mingw/bin/../lib/gcc/mingw32/4.5.0/../../../libmingw32.a(tlssup.o)
__xl_c                                            c:/mingw/bin/../lib/gcc/mingw32/4.5.0/../../../libmingw32.a(tlssup.o)
__xl_d                                            c:/mingw/bin/../lib/gcc/mingw32/4.5.0/../../../libmingw32.a(tlssup.o)
__xl_z                                            c:/mingw/bin/../lib/gcc/mingw32/4.5.0/../../../libmingw32.a(tlssup.o)
_alloca                                           c:/mingw/bin/../lib/gcc/mingw32/4.5.0/libgcc.a(_chkstk.o)
_errno                                            c:/mingw/bin/../lib/gcc/mingw32/4.5.0/../../../libmsvcrt.a(duyms00182.o)
                                                  c:/mingw/bin/../lib/gcc/mingw32/4.5.0/../../../dllcrt2.o
_head_intl_dll                                    C:/MinGW/msys/1.0/dev/lib/libintl.dll.a(d000000.o)
                                                  C:/MinGW/msys/1.0/dev/lib/libintl.dll.a(d000022.o)
                                                  C:/MinGW/msys/1.0/dev/lib/libintl.dll.a(d000019.o)
                                                  C:/MinGW/msys/1.0/dev/lib/libintl.dll.a(d000017.o)
                                                  C:/MinGW/msys/1.0/dev/lib/libintl.dll.a(d000010.o)
                                                  C:/MinGW/msys/1.0/dev/lib/libintl.dll.a(d000011.o)
_head_libglib_2_0_0_dll                           C:/MinGW/msys/1.0/dev/lib/libglib-2.0.dll.a(d000000.o)
                                                  C:/MinGW/msys/1.0/dev/lib/libglib-2.0.dll.a(d001410.o)
                                                  C:/MinGW/msys/1.0/dev/lib/libglib-2.0.dll.a(d000198.o)
                                                  C:/MinGW/msys/1.0/dev/lib/libglib-2.0.dll.a(d000223.o)
                                                  C:/MinGW/msys/1.0/dev/lib/libglib-2.0.dll.a(d000220.o)
                                                  C:/MinGW/msys/1.0/dev/lib/libglib-2.0.dll.a(d000205.o)
                                                  C:/MinGW/msys/1.0/dev/lib/libglib-2.0.dll.a(d000199.o)
                                                  C:/MinGW/msys/1.0/dev/lib/libglib-2.0.dll.a(d000229.o)
                                                  C:/MinGW/msys/1.0/dev/lib/libglib-2.0.dll.a(d000232.o)
                                                  C:/MinGW/msys/1.0/dev/lib/libglib-2.0.dll.a(d000231.o)
                                                  C:/MinGW/msys/1.0/dev/lib/libglib-2.0.dll.a(d000230.o)
                                                  C:/MinGW/msys/1.0/dev/lib/libglib-2.0.dll.a(d000193.o)
                                                  C:/MinGW/msys/1.0/dev/lib/libglib-2.0.dll.a(d000194.o)
                                                  C:/MinGW/msys/1.0/dev/lib/libglib-2.0.dll.a(d000195.o)
                                                  C:/MinGW/msys/1.0/dev/lib/libglib-2.0.dll.a(d000221.o)
                                                  C:/MinGW/msys/1.0/dev/lib/libglib-2.0.dll.a(d000197.o)
                                                  C:/MinGW/msys/1.0/dev/lib/libglib-2.0.dll.a(d000201.o)
                                                  C:/MinGW/msys/1.0/dev/lib/libglib-2.0.dll.a(d000212.o)
                                                  C:/MinGW/msys/1.0/dev/lib/libglib-2.0.dll.a(d001212.o)
                                                  C:/MinGW/msys/1.0/dev/lib/libglib-2.0.dll.a(d000582.o)
                                                  C:/MinGW/msys/1.0/dev/lib/libglib-2.0.dll.a(d001237.o)
                                                  C:/MinGW/msys/1.0/dev/lib/libglib-2.0.dll.a(d000795.o)
                                                  C:/MinGW/msys/1.0/dev/lib/libglib-2.0.dll.a(d000537.o)
                                                  C:/MinGW/msys/1.0/dev/lib/libglib-2.0.dll.a(d000581.o)
                                                  C:/MinGW/msys/1.0/dev/lib/libglib-2.0.dll.a(d000208.o)
                                                  C:/MinGW/msys/1.0/dev/lib/libglib-2.0.dll.a(d000211.o)
                                                  C:/MinGW/msys/1.0/dev/lib/libglib-2.0.dll.a(d001222.o)
                                                  C:/MinGW/msys/1.0/dev/lib/libglib-2.0.dll.a(d000896.o)
                                                  C:/MinGW/msys/1.0/dev/lib/libglib-2.0.dll.a(d000345.o)
                                                  C:/MinGW/msys/1.0/dev/lib/libglib-2.0.dll.a(d000736.o)
                                                  C:/MinGW/msys/1.0/dev/lib/libglib-2.0.dll.a(d000642.o)
                                                  C:/MinGW/msys/1.0/dev/lib/libglib-2.0.dll.a(d000638.o)
                                                  C:/MinGW/msys/1.0/dev/lib/libglib-2.0.dll.a(d000658.o)
                                                  C:/MinGW/msys/1.0/dev/lib/libglib-2.0.dll.a(d000655.o)
                                                  C:/MinGW/msys/1.0/dev/lib/libglib-2.0.dll.a(d000648.o)
                                                  C:/MinGW/msys/1.0/dev/lib/libglib-2.0.dll.a(d000649.o)
                                                  C:/MinGW/msys/1.0/dev/lib/libglib-2.0.dll.a(d000660.o)
                                                  C:/MinGW/msys/1.0/dev/lib/libglib-2.0.dll.a(d000650.o)
                                                  C:/MinGW/msys/1.0/dev/lib/libglib-2.0.dll.a(d000652.o)
                                                  C:/MinGW/msys/1.0/dev/lib/libglib-2.0.dll.a(d000664.o)
                                                  C:/MinGW/msys/1.0/dev/lib/libglib-2.0.dll.a(d000643.o)
                                                  C:/MinGW/msys/1.0/dev/lib/libglib-2.0.dll.a(d000657.o)
                                                  C:/MinGW/msys/1.0/dev/lib/libglib-2.0.dll.a(d001004.o)
                                                  C:/MinGW/msys/1.0/dev/lib/libglib-2.0.dll.a(d000506.o)
                                                  C:/MinGW/msys/1.0/dev/lib/libglib-2.0.dll.a(d000523.o)
                                                  C:/MinGW/msys/1.0/dev/lib/libglib-2.0.dll.a(d000714.o)
                                                  C:/MinGW/msys/1.0/dev/lib/libglib-2.0.dll.a(d000509.o)
                                                  C:/MinGW/msys/1.0/dev/lib/libglib-2.0.dll.a(d000521.o)
                                                  C:/MinGW/msys/1.0/dev/lib/libglib-2.0.dll.a(d000720.o)
                                                  C:/MinGW/msys/1.0/dev/lib/libglib-2.0.dll.a(d000732.o)
                                                  C:/MinGW/msys/1.0/dev/lib/libglib-2.0.dll.a(d000718.o)
                                                  C:/MinGW/msys/1.0/dev/lib/libglib-2.0.dll.a(d000721.o)
                                                  C:/MinGW/msys/1.0/dev/lib/libglib-2.0.dll.a(d000584.o)
                                                  C:/MinGW/msys/1.0/dev/lib/libglib-2.0.dll.a(d000531.o)
                                                  C:/MinGW/msys/1.0/dev/lib/libglib-2.0.dll.a(d000712.o)
                                                  C:/MinGW/msys/1.0/dev/lib/libglib-2.0.dll.a(d001035.o)
                                                  C:/MinGW/msys/1.0/dev/lib/libglib-2.0.dll.a(d001041.o)
                                                  C:/MinGW/msys/1.0/dev/lib/libglib-2.0.dll.a(d000663.o)
                                                  C:/MinGW/msys/1.0/dev/lib/libglib-2.0.dll.a(d001038.o)
                                                  C:/MinGW/msys/1.0/dev/lib/libglib-2.0.dll.a(d000999.o)
                                                  C:/MinGW/msys/1.0/dev/lib/libglib-2.0.dll.a(d000996.o)
                                                  C:/MinGW/msys/1.0/dev/lib/libglib-2.0.dll.a(d001010.o)
                                                  C:/MinGW/msys/1.0/dev/lib/libglib-2.0.dll.a(d000515.o)
                                                  C:/MinGW/msys/1.0/dev/lib/libglib-2.0.dll.a(d000505.o)
                                                  C:/MinGW/msys/1.0/dev/lib/libglib-2.0.dll.a(d000024.o)
                                                  C:/MinGW/msys/1.0/dev/lib/libglib-2.0.dll.a(d001006.o)
                                                  C:/MinGW/msys/1.0/dev/lib/libglib-2.0.dll.a(d000309.o)
                                                  C:/MinGW/msys/1.0/dev/lib/libglib-2.0.dll.a(d000891.o)
                                                  C:/MinGW/msys/1.0/dev/lib/libglib-2.0.dll.a(d000290.o)
                                                  C:/MinGW/msys/1.0/dev/lib/libglib-2.0.dll.a(d000292.o)
                                                  C:/MinGW/msys/1.0/dev/lib/libglib-2.0.dll.a(d000126.o)
                                                  C:/MinGW/msys/1.0/dev/lib/libglib-2.0.dll.a(d000998.o)
                                                  C:/MinGW/msys/1.0/dev/lib/libglib-2.0.dll.a(d000291.o)
                                                  C:/MinGW/msys/1.0/dev/lib/libglib-2.0.dll.a(d000036.o)
                                                  C:/MinGW/msys/1.0/dev/lib/libglib-2.0.dll.a(d000368.o)
                                                  C:/MinGW/msys/1.0/dev/lib/libglib-2.0.dll.a(d000737.o)
                                                  C:/MinGW/msys/1.0/dev/lib/libglib-2.0.dll.a(d000532.o)
                                                  C:/MinGW/msys/1.0/dev/lib/libglib-2.0.dll.a(d000533.o)
                                                  C:/MinGW/msys/1.0/dev/lib/libglib-2.0.dll.a(d000348.o)
                                                  C:/MinGW/msys/1.0/dev/lib/libglib-2.0.dll.a(d000507.o)
                                                  C:/MinGW/msys/1.0/dev/lib/libglib-2.0.dll.a(d000529.o)
                                                  C:/MinGW/msys/1.0/dev/lib/libglib-2.0.dll.a(d000346.o)
                                                  C:/MinGW/msys/1.0/dev/lib/libglib-2.0.dll.a(d000362.o)
                                                  C:/MinGW/msys/1.0/dev/lib/libglib-2.0.dll.a(d001009.o)
                                                  C:/MinGW/msys/1.0/dev/lib/libglib-2.0.dll.a(d000364.o)
                                                  C:/MinGW/msys/1.0/dev/lib/libglib-2.0.dll.a(d000040.o)
                                                  C:/MinGW/msys/1.0/dev/lib/libglib-2.0.dll.a(d000353.o)
                                                  C:/MinGW/msys/1.0/dev/lib/libglib-2.0.dll.a(d000359.o)
                                                  C:/MinGW/msys/1.0/dev/lib/libglib-2.0.dll.a(d000527.o)
                                                  C:/MinGW/msys/1.0/dev/lib/libglib-2.0.dll.a(d000513.o)
                                                  C:/MinGW/msys/1.0/dev/lib/libglib-2.0.dll.a(d000512.o)
                                                  C:/MinGW/msys/1.0/dev/lib/libglib-2.0.dll.a(d000324.o)
                                                  C:/MinGW/msys/1.0/dev/lib/libglib-2.0.dll.a(d000583.o)
                                                  C:/MinGW/msys/1.0/dev/lib/libglib-2.0.dll.a(d000538.o)
                                                  C:/MinGW/msys/1.0/dev/lib/libglib-2.0.dll.a(d000361.o)
                                                  C:/MinGW/msys/1.0/dev/lib/libglib-2.0.dll.a(d000832.o)
_head_libgmodule_2_0_0_dll                        C:/MinGW/msys/1.0/dev/lib/libgmodule-2.0.dll.a(d000000.o)
                                                  C:/MinGW/msys/1.0/dev/lib/libgmodule-2.0.dll.a(d000001.o)
                                                  C:/MinGW/msys/1.0/dev/lib/libgmodule-2.0.dll.a(d000002.o)
                                                  C:/MinGW/msys/1.0/dev/lib/libgmodule-2.0.dll.a(d000008.o)
                                                  C:/MinGW/msys/1.0/dev/lib/libgmodule-2.0.dll.a(d000003.o)
                                                  C:/MinGW/msys/1.0/dev/lib/libgmodule-2.0.dll.a(d000006.o)
_head_libgobject_2_0_0_dll                        C:/MinGW/msys/1.0/dev/lib/libgobject-2.0.dll.a(d000000.o)
                                                  C:/MinGW/msys/1.0/dev/lib/libgobject-2.0.dll.a(d000138.o)
                                                  C:/MinGW/msys/1.0/dev/lib/libgobject-2.0.dll.a(d000163.o)
                                                  C:/MinGW/msys/1.0/dev/lib/libgobject-2.0.dll.a(d000162.o)
                                                  C:/MinGW/msys/1.0/dev/lib/libgobject-2.0.dll.a(d000149.o)
                                                  C:/MinGW/msys/1.0/dev/lib/libgobject-2.0.dll.a(d000132.o)
                                                  C:/MinGW/msys/1.0/dev/lib/libgobject-2.0.dll.a(d000152.o)
                                                  C:/MinGW/msys/1.0/dev/lib/libgobject-2.0.dll.a(d000151.o)
                                                  C:/MinGW/msys/1.0/dev/lib/libgobject-2.0.dll.a(d000060.o)
                                                  C:/MinGW/msys/1.0/dev/lib/libgobject-2.0.dll.a(d000331.o)
                                                  C:/MinGW/msys/1.0/dev/lib/libgobject-2.0.dll.a(d000335.o)
                                                  C:/MinGW/msys/1.0/dev/lib/libgobject-2.0.dll.a(d000306.o)
                                                  C:/MinGW/msys/1.0/dev/lib/libgobject-2.0.dll.a(d000309.o)
                                                  C:/MinGW/msys/1.0/dev/lib/libgobject-2.0.dll.a(d000123.o)
                                                  C:/MinGW/msys/1.0/dev/lib/libgobject-2.0.dll.a(d000126.o)
                                                  C:/MinGW/msys/1.0/dev/lib/libgobject-2.0.dll.a(d000101.o)
                                                  C:/MinGW/msys/1.0/dev/lib/libgobject-2.0.dll.a(d000195.o)
                                                  C:/MinGW/msys/1.0/dev/lib/libgobject-2.0.dll.a(d000192.o)
                                                  C:/MinGW/msys/1.0/dev/lib/libgobject-2.0.dll.a(d000265.o)
                                                  C:/MinGW/msys/1.0/dev/lib/libgobject-2.0.dll.a(d000263.o)
                                                  C:/MinGW/msys/1.0/dev/lib/libgobject-2.0.dll.a(d000337.o)
                                                  C:/MinGW/msys/1.0/dev/lib/libgobject-2.0.dll.a(d000330.o)
                                                  C:/MinGW/msys/1.0/dev/lib/libgobject-2.0.dll.a(d000311.o)
                                                  C:/MinGW/msys/1.0/dev/lib/libgobject-2.0.dll.a(d000305.o)
                                                  C:/MinGW/msys/1.0/dev/lib/libgobject-2.0.dll.a(d000122.o)
                                                  C:/MinGW/msys/1.0/dev/lib/libgobject-2.0.dll.a(d000128.o)
                                                  C:/MinGW/msys/1.0/dev/lib/libgobject-2.0.dll.a(d000148.o)
                                                  C:/MinGW/msys/1.0/dev/lib/libgobject-2.0.dll.a(d000143.o)
                                                  C:/MinGW/msys/1.0/dev/lib/libgobject-2.0.dll.a(d000145.o)
                                                  C:/MinGW/msys/1.0/dev/lib/libgobject-2.0.dll.a(d000146.o)
                                                  C:/MinGW/msys/1.0/dev/lib/libgobject-2.0.dll.a(d000088.o)
                                                  C:/MinGW/msys/1.0/dev/lib/libgobject-2.0.dll.a(d000264.o)
                                                  C:/MinGW/msys/1.0/dev/lib/libgobject-2.0.dll.a(d000259.o)
                                                  C:/MinGW/msys/1.0/dev/lib/libgobject-2.0.dll.a(d000089.o)
                                                  C:/MinGW/msys/1.0/dev/lib/libgobject-2.0.dll.a(d000347.o)
                                                  C:/MinGW/msys/1.0/dev/lib/libgobject-2.0.dll.a(d000342.o)
                                                  C:/MinGW/msys/1.0/dev/lib/libgobject-2.0.dll.a(d000302.o)
                                                  C:/MinGW/msys/1.0/dev/lib/libgobject-2.0.dll.a(d000315.o)
                                                  C:/MinGW/msys/1.0/dev/lib/libgobject-2.0.dll.a(d000147.o)
                                                  C:/MinGW/msys/1.0/dev/lib/libgobject-2.0.dll.a(d000027.o)
                                                  C:/MinGW/msys/1.0/dev/lib/libgobject-2.0.dll.a(d000016.o)
                                                  C:/MinGW/msys/1.0/dev/lib/libgobject-2.0.dll.a(d000025.o)
                                                  C:/MinGW/msys/1.0/dev/lib/libgobject-2.0.dll.a(d000090.o)
                                                  C:/MinGW/msys/1.0/dev/lib/libgobject-2.0.dll.a(d000111.o)
                                                  C:/MinGW/msys/1.0/dev/lib/libgobject-2.0.dll.a(d000286.o)
                                                  C:/MinGW/msys/1.0/dev/lib/libgobject-2.0.dll.a(d000078.o)
                                                  C:/MinGW/msys/1.0/dev/lib/libgobject-2.0.dll.a(d000181.o)
                                                  C:/MinGW/msys/1.0/dev/lib/libgobject-2.0.dll.a(d000168.o)
                                                  C:/MinGW/msys/1.0/dev/lib/libgobject-2.0.dll.a(d000365.o)
                                                  C:/MinGW/msys/1.0/dev/lib/libgobject-2.0.dll.a(d000298.o)
                                                  C:/MinGW/msys/1.0/dev/lib/libgobject-2.0.dll.a(d000326.o)
                                                  C:/MinGW/msys/1.0/dev/lib/libgobject-2.0.dll.a(d000320.o)
                                                  C:/MinGW/msys/1.0/dev/lib/libgobject-2.0.dll.a(d000194.o)
                                                  C:/MinGW/msys/1.0/dev/lib/libgobject-2.0.dll.a(d000180.o)
                                                  C:/MinGW/msys/1.0/dev/lib/libgobject-2.0.dll.a(d000183.o)
                                                  C:/MinGW/msys/1.0/dev/lib/libgobject-2.0.dll.a(d000011.o)
                                                  C:/MinGW/msys/1.0/dev/lib/libgobject-2.0.dll.a(d000182.o)
                                                  C:/MinGW/msys/1.0/dev/lib/libgobject-2.0.dll.a(d000108.o)
                                                  C:/MinGW/msys/1.0/dev/lib/libgobject-2.0.dll.a(d000318.o)
                                                  C:/MinGW/msys/1.0/dev/lib/libgobject-2.0.dll.a(d000142.o)
                                                  C:/MinGW/msys/1.0/dev/lib/libgobject-2.0.dll.a(d000200.o)
                                                  C:/MinGW/msys/1.0/dev/lib/libgobject-2.0.dll.a(d000034.o)
                                                  C:/MinGW/msys/1.0/dev/lib/libgobject-2.0.dll.a(d000350.o)
                                                  C:/MinGW/msys/1.0/dev/lib/libgobject-2.0.dll.a(d000319.o)
                                                  C:/MinGW/msys/1.0/dev/lib/libgobject-2.0.dll.a(d000155.o)
                                                  C:/MinGW/msys/1.0/dev/lib/libgobject-2.0.dll.a(d000266.o)
                                                  C:/MinGW/msys/1.0/dev/lib/libgobject-2.0.dll.a(d000340.o)
                                                  C:/MinGW/msys/1.0/dev/lib/libgobject-2.0.dll.a(d000343.o)
                                                  C:/MinGW/msys/1.0/dev/lib/libgobject-2.0.dll.a(d000313.o)
                                                  C:/MinGW/msys/1.0/dev/lib/libgobject-2.0.dll.a(d000103.o)
                                                  C:/MinGW/msys/1.0/dev/lib/libgobject-2.0.dll.a(d000316.o)
                                                  C:/MinGW/msys/1.0/dev/lib/libgobject-2.0.dll.a(d000118.o)
                                                  C:/MinGW/msys/1.0/dev/lib/libgobject-2.0.dll.a(d000135.o)
                                                  C:/MinGW/msys/1.0/dev/lib/libgobject-2.0.dll.a(d000080.o)
                                                  C:/MinGW/msys/1.0/dev/lib/libgobject-2.0.dll.a(d000139.o)
                                                  C:/MinGW/msys/1.0/dev/lib/libgobject-2.0.dll.a(d000098.o)
                                                  C:/MinGW/msys/1.0/dev/lib/libgobject-2.0.dll.a(d000224.o)
                                                  C:/MinGW/msys/1.0/dev/lib/libgobject-2.0.dll.a(d000223.o)
                                                  C:/MinGW/msys/1.0/dev/lib/libgobject-2.0.dll.a(d000232.o)
                                                  C:/MinGW/msys/1.0/dev/lib/libgobject-2.0.dll.a(d000220.o)
                                                  C:/MinGW/msys/1.0/dev/lib/libgobject-2.0.dll.a(d000280.o)
                                                  C:/MinGW/msys/1.0/dev/lib/libgobject-2.0.dll.a(d000327.o)
_head_libkernel32_a                               c:/mingw/bin/../lib/gcc/mingw32/4.5.0/../../../libkernel32.a(dkjeh.o)
                                                  c:/mingw/bin/../lib/gcc/mingw32/4.5.0/../../../libkernel32.a(dkjes00523.o)
                                                  c:/mingw/bin/../lib/gcc/mingw32/4.5.0/../../../libkernel32.a(dkjes00126.o)
                                                  c:/mingw/bin/../lib/gcc/mingw32/4.5.0/../../../libkernel32.a(dkjes00492.o)
                                                  c:/mingw/bin/../lib/gcc/mingw32/4.5.0/../../../libkernel32.a(dkjes00107.o)
                                                  c:/mingw/bin/../lib/gcc/mingw32/4.5.0/../../../libkernel32.a(dkjes00325.o)
                                                  c:/mingw/bin/../lib/gcc/mingw32/4.5.0/../../../libkernel32.a(dkjes00765.o)
                                                  c:/mingw/bin/../lib/gcc/mingw32/4.5.0/../../../libkernel32.a(dkjes00798.o)
                                                  c:/mingw/bin/../lib/gcc/mingw32/4.5.0/../../../libkernel32.a(dkjes00801.o)
                                                  c:/mingw/bin/../lib/gcc/mingw32/4.5.0/../../../libkernel32.a(dkjes00214.o)
                                                  c:/mingw/bin/../lib/gcc/mingw32/4.5.0/../../../libkernel32.a(dkjes00524.o)
                                                  c:/mingw/bin/../lib/gcc/mingw32/4.5.0/../../../libkernel32.a(dkjes00327.o)
                                                  c:/mingw/bin/../lib/gcc/mingw32/4.5.0/../../../libkernel32.a(dkjes00364.o)
                                                  c:/mingw/bin/../lib/gcc/mingw32/4.5.0/../../../libkernel32.a(dkjes00337.o)
_head_libmoldname_a                               c:/mingw/bin/../lib/gcc/mingw32/4.5.0/../../../libmoldname.a(dgzlh.o)
                                                  c:/mingw/bin/../lib/gcc/mingw32/4.5.0/../../../libmoldname.a(dgzls00062.o)
_head_libmsvcrt_a                                 c:/mingw/bin/../lib/gcc/mingw32/4.5.0/../../../libmsvcrt.a(duymh.o)
                                                  c:/mingw/bin/../lib/gcc/mingw32/4.5.0/../../../libmsvcrt.a(duyms00595.o)
                                                  c:/mingw/bin/../lib/gcc/mingw32/4.5.0/../../../libmsvcrt.a(duyms00583.o)
                                                  c:/mingw/bin/../lib/gcc/mingw32/4.5.0/../../../libmsvcrt.a(duyms00748.o)
                                                  c:/mingw/bin/../lib/gcc/mingw32/4.5.0/../../../libmsvcrt.a(duyms00633.o)
                                                  c:/mingw/bin/../lib/gcc/mingw32/4.5.0/../../../libmsvcrt.a(duyms00266.o)
                                                  c:/mingw/bin/../lib/gcc/mingw32/4.5.0/../../../libmsvcrt.a(duyms00538.o)
                                                  c:/mingw/bin/../lib/gcc/mingw32/4.5.0/../../../libmsvcrt.a(duyms00720.o)
                                                  c:/mingw/bin/../lib/gcc/mingw32/4.5.0/../../../libmsvcrt.a(duyms00717.o)
                                                  c:/mingw/bin/../lib/gcc/mingw32/4.5.0/../../../libmsvcrt.a(duyms00712.o)
                                                  c:/mingw/bin/../lib/gcc/mingw32/4.5.0/../../../libmsvcrt.a(duyms00721.o)
                                                  c:/mingw/bin/../lib/gcc/mingw32/4.5.0/../../../libmsvcrt.a(duyms00641.o)
                                                  c:/mingw/bin/../lib/gcc/mingw32/4.5.0/../../../libmsvcrt.a(duyms00672.o)
                                                  c:/mingw/bin/../lib/gcc/mingw32/4.5.0/../../../libmsvcrt.a(duyms00739.o)
                                                  c:/mingw/bin/../lib/gcc/mingw32/4.5.0/../../../libmsvcrt.a(duyms00685.o)
                                                  c:/mingw/bin/../lib/gcc/mingw32/4.5.0/../../../libmsvcrt.a(duyms00616.o)
                                                  c:/mingw/bin/../lib/gcc/mingw32/4.5.0/../../../libmsvcrt.a(duyms00728.o)
                                                  c:/mingw/bin/../lib/gcc/mingw32/4.5.0/../../../libmsvcrt.a(duyms00723.o)
                                                  c:/mingw/bin/../lib/gcc/mingw32/4.5.0/../../../libmsvcrt.a(duyms00684.o)
                                                  c:/mingw/bin/../lib/gcc/mingw32/4.5.0/../../../libmsvcrt.a(duyms00682.o)
                                                  c:/mingw/bin/../lib/gcc/mingw32/4.5.0/../../../libmsvcrt.a(duyms00715.o)
                                                  c:/mingw/bin/../lib/gcc/mingw32/4.5.0/../../../libmsvcrt.a(duyms00182.o)
                                                  c:/mingw/bin/../lib/gcc/mingw32/4.5.0/../../../libmsvcrt.a(duyms00676.o)
                                                  c:/mingw/bin/../lib/gcc/mingw32/4.5.0/../../../libmsvcrt.a(duyms00610.o)
                                                  c:/mingw/bin/../lib/gcc/mingw32/4.5.0/../../../libmsvcrt.a(duyms00625.o)
                                                  c:/mingw/bin/../lib/gcc/mingw32/4.5.0/../../../libmsvcrt.a(duyms00052.o)
_image_base__                                     c:/mingw/bin/../lib/gcc/mingw32/4.5.0/../../../libmingw32.a(pseudo-reloc.o)
_imp__DeleteCriticalSection@4                     c:/mingw/bin/../lib/gcc/mingw32/4.5.0/../../../libkernel32.a(dkjes00107.o)
_imp__EnterCriticalSection@4                      c:/mingw/bin/../lib/gcc/mingw32/4.5.0/../../../libkernel32.a(dkjes00126.o)
_imp__FreeLibrary@4                               c:/mingw/bin/../lib/gcc/mingw32/4.5.0/../../../libkernel32.a(dkjes00214.o)
_imp__GetLastError@0                              c:/mingw/bin/../lib/gcc/mingw32/4.5.0/../../../libkernel32.a(dkjes00325.o)
_imp__GetLocaleInfoA@16                           c:/mingw/bin/../lib/gcc/mingw32/4.5.0/../../../libkernel32.a(dkjes00327.o)
_imp__GetModuleHandleA@4                          c:/mingw/bin/../lib/gcc/mingw32/4.5.0/../../../libkernel32.a(dkjes00337.o)
_imp__GetProcAddress@8                            c:/mingw/bin/../lib/gcc/mingw32/4.5.0/../../../libkernel32.a(dkjes00364.o)
_imp__InitializeCriticalSection@4                 c:/mingw/bin/../lib/gcc/mingw32/4.5.0/../../../libkernel32.a(dkjes00492.o)
_imp__LeaveCriticalSection@4                      c:/mingw/bin/../lib/gcc/mingw32/4.5.0/../../../libkernel32.a(dkjes00523.o)
_imp__LoadLibraryA@4                              c:/mingw/bin/../lib/gcc/mingw32/4.5.0/../../../libkernel32.a(dkjes00524.o)
_imp__TlsGetValue@4                               c:/mingw/bin/../lib/gcc/mingw32/4.5.0/../../../libkernel32.a(dkjes00765.o)
_imp__VirtualProtect@16                           c:/mingw/bin/../lib/gcc/mingw32/4.5.0/../../../libkernel32.a(dkjes00798.o)
_imp__VirtualQuery@12                             c:/mingw/bin/../lib/gcc/mingw32/4.5.0/../../../libkernel32.a(dkjes00801.o)
_imp____dllonexit                                 c:/mingw/bin/../lib/gcc/mingw32/4.5.0/../../../libmsvcrt.a(duyms00052.o)
_imp___errno                                      c:/mingw/bin/../lib/gcc/mingw32/4.5.0/../../../libmsvcrt.a(duyms00182.o)
_imp___iob                                        c:/mingw/bin/../lib/gcc/mingw32/4.5.0/../../../libmsvcrt.a(duyms00266.o)
                                                  c:/mingw/bin/../lib/gcc/mingw32/4.5.0/../../../libmingw32.a(pseudo-reloc.o)
_imp___winmajor                                   c:/mingw/bin/../lib/gcc/mingw32/4.5.0/../../../libmsvcrt.a(duyms00538.o)
                                                  c:/mingw/bin/../lib/gcc/mingw32/4.5.0/../../../libmingw32.a(tlssup.o)
_imp__abort                                       c:/mingw/bin/../lib/gcc/mingw32/4.5.0/../../../libmsvcrt.a(duyms00583.o)
_imp__calloc                                      c:/mingw/bin/../lib/gcc/mingw32/4.5.0/../../../libmsvcrt.a(duyms00595.o)
_imp__fflush                                      c:/mingw/bin/../lib/gcc/mingw32/4.5.0/../../../libmsvcrt.a(duyms00610.o)
_imp__floor                                       c:/mingw/bin/../lib/gcc/mingw32/4.5.0/../../../libmsvcrt.a(duyms00616.o)
_imp__free                                        c:/mingw/bin/../lib/gcc/mingw32/4.5.0/../../../libmsvcrt.a(duyms00625.o)
_imp__fwrite                                      c:/mingw/bin/../lib/gcc/mingw32/4.5.0/../../../libmsvcrt.a(duyms00633.o)
_imp__g_ascii_strcasecmp                          C:/MinGW/msys/1.0/dev/lib/libglib-2.0.dll.a(d000024.o)
_imp__g_assertion_message                         C:/MinGW/msys/1.0/dev/lib/libglib-2.0.dll.a(d000036.o)
_imp__g_assertion_message_expr                    C:/MinGW/msys/1.0/dev/lib/libglib-2.0.dll.a(d000040.o)
_imp__g_boxed_type_register_static                C:/MinGW/msys/1.0/dev/lib/libgobject-2.0.dll.a(d000011.o)
_imp__g_build_filename                            C:/MinGW/msys/1.0/dev/lib/libglib-2.0.dll.a(d000126.o)
_imp__g_cclosure_marshal_VOID__BOOLEAN            C:/MinGW/msys/1.0/dev/lib/libgobject-2.0.dll.a(d000016.o)
_imp__g_cclosure_marshal_VOID__OBJECT             C:/MinGW/msys/1.0/dev/lib/libgobject-2.0.dll.a(d000025.o)
_imp__g_cclosure_marshal_VOID__POINTER            C:/MinGW/msys/1.0/dev/lib/libgobject-2.0.dll.a(d000027.o)
_imp__g_cclosure_marshal_VOID__VOID               C:/MinGW/msys/1.0/dev/lib/libgobject-2.0.dll.a(d000034.o)
_imp__g_date_add_days                             C:/MinGW/msys/1.0/dev/lib/libglib-2.0.dll.a(d000193.o)
_imp__g_date_add_months                           C:/MinGW/msys/1.0/dev/lib/libglib-2.0.dll.a(d000194.o)
_imp__g_date_add_years                            C:/MinGW/msys/1.0/dev/lib/libglib-2.0.dll.a(d000195.o)
_imp__g_date_clear                                C:/MinGW/msys/1.0/dev/lib/libglib-2.0.dll.a(d000197.o)
_imp__g_date_compare                              C:/MinGW/msys/1.0/dev/lib/libglib-2.0.dll.a(d000198.o)
_imp__g_date_days_between                         C:/MinGW/msys/1.0/dev/lib/libglib-2.0.dll.a(d000199.o)
_imp__g_date_get_day                              C:/MinGW/msys/1.0/dev/lib/libglib-2.0.dll.a(d000201.o)
_imp__g_date_get_julian                           C:/MinGW/msys/1.0/dev/lib/libglib-2.0.dll.a(d000205.o)
_imp__g_date_get_month                            C:/MinGW/msys/1.0/dev/lib/libglib-2.0.dll.a(d000208.o)
_imp__g_date_get_weekday                          C:/MinGW/msys/1.0/dev/lib/libglib-2.0.dll.a(d000211.o)
_imp__g_date_get_year                             C:/MinGW/msys/1.0/dev/lib/libglib-2.0.dll.a(d000212.o)
_imp__g_date_set_day                              C:/MinGW/msys/1.0/dev/lib/libglib-2.0.dll.a(d000220.o)
_imp__g_date_set_dmy                              C:/MinGW/msys/1.0/dev/lib/libglib-2.0.dll.a(d000221.o)
_imp__g_date_set_month                            C:/MinGW/msys/1.0/dev/lib/libglib-2.0.dll.a(d000223.o)
_imp__g_date_strftime                             C:/MinGW/msys/1.0/dev/lib/libglib-2.0.dll.a(d000229.o)
_imp__g_date_subtract_days                        C:/MinGW/msys/1.0/dev/lib/libglib-2.0.dll.a(d000230.o)
_imp__g_date_subtract_months                      C:/MinGW/msys/1.0/dev/lib/libglib-2.0.dll.a(d000231.o)
_imp__g_date_subtract_years                       C:/MinGW/msys/1.0/dev/lib/libglib-2.0.dll.a(d000232.o)
_imp__g_dir_close                                 C:/MinGW/msys/1.0/dev/lib/libglib-2.0.dll.a(d000290.o)
_imp__g_dir_open_utf8                             C:/MinGW/msys/1.0/dev/lib/libglib-2.0.dll.a(d000291.o)
_imp__g_dir_read_name_utf8                        C:/MinGW/msys/1.0/dev/lib/libglib-2.0.dll.a(d000292.o)
_imp__g_enum_register_static                      C:/MinGW/msys/1.0/dev/lib/libgobject-2.0.dll.a(d000060.o)
_imp__g_file_get_contents_utf8                    C:/MinGW/msys/1.0/dev/lib/libglib-2.0.dll.a(d000309.o)
_imp__g_free                                      C:/MinGW/msys/1.0/dev/lib/libglib-2.0.dll.a(d000324.o)
_imp__g_getenv_utf8                               C:/MinGW/msys/1.0/dev/lib/libglib-2.0.dll.a(d000345.o)
_imp__g_hash_table_destroy                        C:/MinGW/msys/1.0/dev/lib/libglib-2.0.dll.a(d000346.o)
_imp__g_hash_table_foreach                        C:/MinGW/msys/1.0/dev/lib/libglib-2.0.dll.a(d000348.o)
_imp__g_hash_table_insert                         C:/MinGW/msys/1.0/dev/lib/libglib-2.0.dll.a(d000353.o)
_imp__g_hash_table_lookup                         C:/MinGW/msys/1.0/dev/lib/libglib-2.0.dll.a(d000359.o)
_imp__g_hash_table_new                            C:/MinGW/msys/1.0/dev/lib/libglib-2.0.dll.a(d000361.o)
_imp__g_hash_table_new_full                       C:/MinGW/msys/1.0/dev/lib/libglib-2.0.dll.a(d000362.o)
_imp__g_hash_table_remove                         C:/MinGW/msys/1.0/dev/lib/libglib-2.0.dll.a(d000364.o)
_imp__g_hash_table_steal                          C:/MinGW/msys/1.0/dev/lib/libglib-2.0.dll.a(d000368.o)
_imp__g_list_append                               C:/MinGW/msys/1.0/dev/lib/libglib-2.0.dll.a(d000505.o)
_imp__g_list_concat                               C:/MinGW/msys/1.0/dev/lib/libglib-2.0.dll.a(d000506.o)
_imp__g_list_copy                                 C:/MinGW/msys/1.0/dev/lib/libglib-2.0.dll.a(d000507.o)
_imp__g_list_find                                 C:/MinGW/msys/1.0/dev/lib/libglib-2.0.dll.a(d000509.o)
_imp__g_list_foreach                              C:/MinGW/msys/1.0/dev/lib/libglib-2.0.dll.a(d000512.o)
_imp__g_list_free                                 C:/MinGW/msys/1.0/dev/lib/libglib-2.0.dll.a(d000513.o)
_imp__g_list_index                                C:/MinGW/msys/1.0/dev/lib/libglib-2.0.dll.a(d000515.o)
_imp__g_list_length                               C:/MinGW/msys/1.0/dev/lib/libglib-2.0.dll.a(d000521.o)
_imp__g_list_nth_data                             C:/MinGW/msys/1.0/dev/lib/libglib-2.0.dll.a(d000523.o)
_imp__g_list_prepend                              C:/MinGW/msys/1.0/dev/lib/libglib-2.0.dll.a(d000527.o)
_imp__g_list_remove                               C:/MinGW/msys/1.0/dev/lib/libglib-2.0.dll.a(d000529.o)
_imp__g_list_remove_link                          C:/MinGW/msys/1.0/dev/lib/libglib-2.0.dll.a(d000531.o)
_imp__g_list_reverse                              C:/MinGW/msys/1.0/dev/lib/libglib-2.0.dll.a(d000532.o)
_imp__g_list_sort                                 C:/MinGW/msys/1.0/dev/lib/libglib-2.0.dll.a(d000533.o)
_imp__g_locale_to_utf8                            C:/MinGW/msys/1.0/dev/lib/libglib-2.0.dll.a(d000537.o)
_imp__g_log                                       C:/MinGW/msys/1.0/dev/lib/libglib-2.0.dll.a(d000538.o)
_imp__g_malloc                                    C:/MinGW/msys/1.0/dev/lib/libglib-2.0.dll.a(d000581.o)
_imp__g_malloc0                                   C:/MinGW/msys/1.0/dev/lib/libglib-2.0.dll.a(d000582.o)
_imp__g_malloc0_n                                 C:/MinGW/msys/1.0/dev/lib/libglib-2.0.dll.a(d000583.o)
_imp__g_malloc_n                                  C:/MinGW/msys/1.0/dev/lib/libglib-2.0.dll.a(d000584.o)
_imp__g_module_build_path                         C:/MinGW/msys/1.0/dev/lib/libgmodule-2.0.dll.a(d000001.o)
_imp__g_module_close                              C:/MinGW/msys/1.0/dev/lib/libgmodule-2.0.dll.a(d000002.o)
_imp__g_module_error                              C:/MinGW/msys/1.0/dev/lib/libgmodule-2.0.dll.a(d000003.o)
_imp__g_module_open_utf8                          C:/MinGW/msys/1.0/dev/lib/libgmodule-2.0.dll.a(d000006.o)
_imp__g_module_symbol                             C:/MinGW/msys/1.0/dev/lib/libgmodule-2.0.dll.a(d000008.o)
_imp__g_node_child_position                       C:/MinGW/msys/1.0/dev/lib/libglib-2.0.dll.a(d000638.o)
_imp__g_node_depth                                C:/MinGW/msys/1.0/dev/lib/libglib-2.0.dll.a(d000642.o)
_imp__g_node_destroy                              C:/MinGW/msys/1.0/dev/lib/libglib-2.0.dll.a(d000643.o)
_imp__g_node_insert                               C:/MinGW/msys/1.0/dev/lib/libglib-2.0.dll.a(d000648.o)
_imp__g_node_insert_after                         C:/MinGW/msys/1.0/dev/lib/libglib-2.0.dll.a(d000649.o)
_imp__g_node_insert_before                        C:/MinGW/msys/1.0/dev/lib/libglib-2.0.dll.a(d000650.o)
_imp__g_node_last_child                           C:/MinGW/msys/1.0/dev/lib/libglib-2.0.dll.a(d000652.o)
_imp__g_node_n_children                           C:/MinGW/msys/1.0/dev/lib/libglib-2.0.dll.a(d000655.o)
_imp__g_node_new                                  C:/MinGW/msys/1.0/dev/lib/libglib-2.0.dll.a(d000657.o)
_imp__g_node_nth_child                            C:/MinGW/msys/1.0/dev/lib/libglib-2.0.dll.a(d000658.o)
_imp__g_node_prepend                              C:/MinGW/msys/1.0/dev/lib/libglib-2.0.dll.a(d000660.o)
_imp__g_node_traverse                             C:/MinGW/msys/1.0/dev/lib/libglib-2.0.dll.a(d000663.o)
_imp__g_node_unlink                               C:/MinGW/msys/1.0/dev/lib/libglib-2.0.dll.a(d000664.o)
_imp__g_object_class_find_property                C:/MinGW/msys/1.0/dev/lib/libgobject-2.0.dll.a(d000078.o)
_imp__g_object_class_install_property             C:/MinGW/msys/1.0/dev/lib/libgobject-2.0.dll.a(d000080.o)
_imp__g_object_get                                C:/MinGW/msys/1.0/dev/lib/libgobject-2.0.dll.a(d000088.o)
_imp__g_object_get_data                           C:/MinGW/msys/1.0/dev/lib/libgobject-2.0.dll.a(d000089.o)
_imp__g_object_get_property                       C:/MinGW/msys/1.0/dev/lib/libgobject-2.0.dll.a(d000090.o)
_imp__g_object_new                                C:/MinGW/msys/1.0/dev/lib/libgobject-2.0.dll.a(d000098.o)
_imp__g_object_notify                             C:/MinGW/msys/1.0/dev/lib/libgobject-2.0.dll.a(d000101.o)
_imp__g_object_ref                                C:/MinGW/msys/1.0/dev/lib/libgobject-2.0.dll.a(d000103.o)
_imp__g_object_set                                C:/MinGW/msys/1.0/dev/lib/libgobject-2.0.dll.a(d000108.o)
_imp__g_object_set_property                       C:/MinGW/msys/1.0/dev/lib/libgobject-2.0.dll.a(d000111.o)
_imp__g_object_unref                              C:/MinGW/msys/1.0/dev/lib/libgobject-2.0.dll.a(d000118.o)
_imp__g_param_spec_boolean                        C:/MinGW/msys/1.0/dev/lib/libgobject-2.0.dll.a(d000122.o)
_imp__g_param_spec_boxed                          C:/MinGW/msys/1.0/dev/lib/libgobject-2.0.dll.a(d000123.o)
_imp__g_param_spec_enum                           C:/MinGW/msys/1.0/dev/lib/libgobject-2.0.dll.a(d000126.o)
_imp__g_param_spec_float                          C:/MinGW/msys/1.0/dev/lib/libgobject-2.0.dll.a(d000128.o)
_imp__g_param_spec_get_qdata                      C:/MinGW/msys/1.0/dev/lib/libgobject-2.0.dll.a(d000132.o)
_imp__g_param_spec_int                            C:/MinGW/msys/1.0/dev/lib/libgobject-2.0.dll.a(d000135.o)
_imp__g_param_spec_long                           C:/MinGW/msys/1.0/dev/lib/libgobject-2.0.dll.a(d000138.o)
_imp__g_param_spec_object                         C:/MinGW/msys/1.0/dev/lib/libgobject-2.0.dll.a(d000139.o)
_imp__g_param_spec_pointer                        C:/MinGW/msys/1.0/dev/lib/libgobject-2.0.dll.a(d000142.o)
_imp__g_param_spec_pool_insert                    C:/MinGW/msys/1.0/dev/lib/libgobject-2.0.dll.a(d000143.o)
_imp__g_param_spec_pool_list_owned                C:/MinGW/msys/1.0/dev/lib/libgobject-2.0.dll.a(d000145.o)
_imp__g_param_spec_pool_lookup                    C:/MinGW/msys/1.0/dev/lib/libgobject-2.0.dll.a(d000146.o)
_imp__g_param_spec_pool_new                       C:/MinGW/msys/1.0/dev/lib/libgobject-2.0.dll.a(d000147.o)
_imp__g_param_spec_pool_remove                    C:/MinGW/msys/1.0/dev/lib/libgobject-2.0.dll.a(d000148.o)
_imp__g_param_spec_ref                            C:/MinGW/msys/1.0/dev/lib/libgobject-2.0.dll.a(d000149.o)
_imp__g_param_spec_set_qdata                      C:/MinGW/msys/1.0/dev/lib/libgobject-2.0.dll.a(d000151.o)
_imp__g_param_spec_set_qdata_full                 C:/MinGW/msys/1.0/dev/lib/libgobject-2.0.dll.a(d000152.o)
_imp__g_param_spec_string                         C:/MinGW/msys/1.0/dev/lib/libgobject-2.0.dll.a(d000155.o)
_imp__g_param_spec_unref                          C:/MinGW/msys/1.0/dev/lib/libgobject-2.0.dll.a(d000162.o)
_imp__g_param_spec_value_array                    C:/MinGW/msys/1.0/dev/lib/libgobject-2.0.dll.a(d000163.o)
_imp__g_param_value_set_default                   C:/MinGW/msys/1.0/dev/lib/libgobject-2.0.dll.a(d000168.o)
_imp__g_print                                     C:/MinGW/msys/1.0/dev/lib/libglib-2.0.dll.a(d000712.o)
_imp__g_printf                                    C:/MinGW/msys/1.0/dev/lib/libglib-2.0.dll.a(d000714.o)
_imp__g_ptr_array_add                             C:/MinGW/msys/1.0/dev/lib/libglib-2.0.dll.a(d000718.o)
_imp__g_ptr_array_free                            C:/MinGW/msys/1.0/dev/lib/libglib-2.0.dll.a(d000720.o)
_imp__g_ptr_array_new                             C:/MinGW/msys/1.0/dev/lib/libglib-2.0.dll.a(d000721.o)
_imp__g_ptr_array_sort                            C:/MinGW/msys/1.0/dev/lib/libglib-2.0.dll.a(d000732.o)
_imp__g_quark_from_static_string                  C:/MinGW/msys/1.0/dev/lib/libglib-2.0.dll.a(d000736.o)
_imp__g_quark_from_string                         C:/MinGW/msys/1.0/dev/lib/libglib-2.0.dll.a(d000737.o)
_imp__g_realloc                                   C:/MinGW/msys/1.0/dev/lib/libglib-2.0.dll.a(d000795.o)
_imp__g_return_if_fail_warning                    C:/MinGW/msys/1.0/dev/lib/libglib-2.0.dll.a(d000832.o)
_imp__g_set_error                                 C:/MinGW/msys/1.0/dev/lib/libglib-2.0.dll.a(d000891.o)
_imp__g_setenv_utf8                               C:/MinGW/msys/1.0/dev/lib/libglib-2.0.dll.a(d000896.o)
_imp__g_signal_connect_data                       C:/MinGW/msys/1.0/dev/lib/libgobject-2.0.dll.a(d000180.o)
_imp__g_signal_connect_object                     C:/MinGW/msys/1.0/dev/lib/libgobject-2.0.dll.a(d000181.o)
_imp__g_signal_emit                               C:/MinGW/msys/1.0/dev/lib/libgobject-2.0.dll.a(d000182.o)
_imp__g_signal_emit_by_name                       C:/MinGW/msys/1.0/dev/lib/libgobject-2.0.dll.a(d000183.o)
_imp__g_signal_handlers_block_matched             C:/MinGW/msys/1.0/dev/lib/libgobject-2.0.dll.a(d000192.o)
_imp__g_signal_handlers_disconnect_matched        C:/MinGW/msys/1.0/dev/lib/libgobject-2.0.dll.a(d000194.o)
_imp__g_signal_handlers_unblock_matched           C:/MinGW/msys/1.0/dev/lib/libgobject-2.0.dll.a(d000195.o)
_imp__g_signal_new                                C:/MinGW/msys/1.0/dev/lib/libgobject-2.0.dll.a(d000200.o)
_imp__g_str_equal                                 C:/MinGW/msys/1.0/dev/lib/libglib-2.0.dll.a(d000996.o)
_imp__g_str_has_suffix                            C:/MinGW/msys/1.0/dev/lib/libglib-2.0.dll.a(d000998.o)
_imp__g_str_hash                                  C:/MinGW/msys/1.0/dev/lib/libglib-2.0.dll.a(d000999.o)
_imp__g_strcmp0                                   C:/MinGW/msys/1.0/dev/lib/libglib-2.0.dll.a(d001004.o)
_imp__g_strconcat                                 C:/MinGW/msys/1.0/dev/lib/libglib-2.0.dll.a(d001006.o)
_imp__g_strdup                                    C:/MinGW/msys/1.0/dev/lib/libglib-2.0.dll.a(d001009.o)
_imp__g_strdup_printf                             C:/MinGW/msys/1.0/dev/lib/libglib-2.0.dll.a(d001010.o)
_imp__g_string_free                               C:/MinGW/msys/1.0/dev/lib/libglib-2.0.dll.a(d001035.o)
_imp__g_string_insert_c                           C:/MinGW/msys/1.0/dev/lib/libglib-2.0.dll.a(d001038.o)
_imp__g_string_new                                C:/MinGW/msys/1.0/dev/lib/libglib-2.0.dll.a(d001041.o)
_imp__g_type_check_class_cast                     C:/MinGW/msys/1.0/dev/lib/libgobject-2.0.dll.a(d000220.o)
_imp__g_type_check_instance_cast                  C:/MinGW/msys/1.0/dev/lib/libgobject-2.0.dll.a(d000223.o)
_imp__g_type_check_instance_is_a                  C:/MinGW/msys/1.0/dev/lib/libgobject-2.0.dll.a(d000224.o)
_imp__g_type_class_peek_parent                    C:/MinGW/msys/1.0/dev/lib/libgobject-2.0.dll.a(d000232.o)
_imp__g_type_module_get_type                      C:/MinGW/msys/1.0/dev/lib/libgobject-2.0.dll.a(d000259.o)
_imp__g_type_module_set_name                      C:/MinGW/msys/1.0/dev/lib/libgobject-2.0.dll.a(d000263.o)
_imp__g_type_module_unuse                         C:/MinGW/msys/1.0/dev/lib/libgobject-2.0.dll.a(d000264.o)
_imp__g_type_module_use                           C:/MinGW/msys/1.0/dev/lib/libgobject-2.0.dll.a(d000265.o)
_imp__g_type_name                                 C:/MinGW/msys/1.0/dev/lib/libgobject-2.0.dll.a(d000266.o)
_imp__g_type_register_static                      C:/MinGW/msys/1.0/dev/lib/libgobject-2.0.dll.a(d000280.o)
_imp__g_type_value_table_peek                     C:/MinGW/msys/1.0/dev/lib/libgobject-2.0.dll.a(d000286.o)
_imp__g_unichar_to_utf8                           C:/MinGW/msys/1.0/dev/lib/libglib-2.0.dll.a(d001212.o)
_imp__g_unsetenv_utf8                             C:/MinGW/msys/1.0/dev/lib/libglib-2.0.dll.a(d001222.o)
_imp__g_utf8_get_char                             C:/MinGW/msys/1.0/dev/lib/libglib-2.0.dll.a(d001237.o)
_imp__g_value_copy                                C:/MinGW/msys/1.0/dev/lib/libgobject-2.0.dll.a(d000298.o)
_imp__g_value_dup_string                          C:/MinGW/msys/1.0/dev/lib/libgobject-2.0.dll.a(d000302.o)
_imp__g_value_get_boolean                         C:/MinGW/msys/1.0/dev/lib/libgobject-2.0.dll.a(d000305.o)
_imp__g_value_get_boxed                           C:/MinGW/msys/1.0/dev/lib/libgobject-2.0.dll.a(d000306.o)
_imp__g_value_get_enum                            C:/MinGW/msys/1.0/dev/lib/libgobject-2.0.dll.a(d000309.o)
_imp__g_value_get_float                           C:/MinGW/msys/1.0/dev/lib/libgobject-2.0.dll.a(d000311.o)
_imp__g_value_get_int                             C:/MinGW/msys/1.0/dev/lib/libgobject-2.0.dll.a(d000313.o)
_imp__g_value_get_long                            C:/MinGW/msys/1.0/dev/lib/libgobject-2.0.dll.a(d000315.o)
_imp__g_value_get_object                          C:/MinGW/msys/1.0/dev/lib/libgobject-2.0.dll.a(d000316.o)
_imp__g_value_get_pointer                         C:/MinGW/msys/1.0/dev/lib/libgobject-2.0.dll.a(d000318.o)
_imp__g_value_get_string                          C:/MinGW/msys/1.0/dev/lib/libgobject-2.0.dll.a(d000319.o)
_imp__g_value_get_type                            C:/MinGW/msys/1.0/dev/lib/libgobject-2.0.dll.a(d000320.o)
_imp__g_value_init                                C:/MinGW/msys/1.0/dev/lib/libgobject-2.0.dll.a(d000326.o)
_imp__g_value_peek_pointer                        C:/MinGW/msys/1.0/dev/lib/libgobject-2.0.dll.a(d000327.o)
_imp__g_value_set_boolean                         C:/MinGW/msys/1.0/dev/lib/libgobject-2.0.dll.a(d000330.o)
_imp__g_value_set_boxed                           C:/MinGW/msys/1.0/dev/lib/libgobject-2.0.dll.a(d000331.o)
_imp__g_value_set_enum                            C:/MinGW/msys/1.0/dev/lib/libgobject-2.0.dll.a(d000335.o)
_imp__g_value_set_float                           C:/MinGW/msys/1.0/dev/lib/libgobject-2.0.dll.a(d000337.o)
_imp__g_value_set_int                             C:/MinGW/msys/1.0/dev/lib/libgobject-2.0.dll.a(d000340.o)
_imp__g_value_set_long                            C:/MinGW/msys/1.0/dev/lib/libgobject-2.0.dll.a(d000342.o)
_imp__g_value_set_object                          C:/MinGW/msys/1.0/dev/lib/libgobject-2.0.dll.a(d000343.o)
_imp__g_value_set_pointer                         C:/MinGW/msys/1.0/dev/lib/libgobject-2.0.dll.a(d000347.o)
_imp__g_value_set_string                          C:/MinGW/msys/1.0/dev/lib/libgobject-2.0.dll.a(d000350.o)
_imp__g_value_unset                               C:/MinGW/msys/1.0/dev/lib/libgobject-2.0.dll.a(d000365.o)
_imp__g_win32_get_package_installation_directory_of_module C:/MinGW/msys/1.0/dev/lib/libglib-2.0.dll.a(d001410.o)
_imp__gmtime                                      c:/mingw/bin/../lib/gcc/mingw32/4.5.0/../../../libmsvcrt.a(duyms00641.o)
_imp__libintl_bind_textdomain_codeset             C:/MinGW/msys/1.0/dev/lib/libintl.dll.a(d000010.o)
_imp__libintl_bindtextdomain                      C:/MinGW/msys/1.0/dev/lib/libintl.dll.a(d000011.o)
_imp__libintl_gettext                             C:/MinGW/msys/1.0/dev/lib/libintl.dll.a(d000017.o)
_imp__libintl_printf                              C:/MinGW/msys/1.0/dev/lib/libintl.dll.a(d000019.o)
_imp__libintl_snprintf                            C:/MinGW/msys/1.0/dev/lib/libintl.dll.a(d000022.o)
_imp__localtime                                   c:/mingw/bin/../lib/gcc/mingw32/4.5.0/../../../libmsvcrt.a(duyms00672.o)
_imp__malloc                                      c:/mingw/bin/../lib/gcc/mingw32/4.5.0/../../../libmsvcrt.a(duyms00676.o)
_imp__memcpy                                      c:/mingw/bin/../lib/gcc/mingw32/4.5.0/../../../libmsvcrt.a(duyms00682.o)
_imp__memset                                      c:/mingw/bin/../lib/gcc/mingw32/4.5.0/../../../libmsvcrt.a(duyms00684.o)
_imp__mktime                                      c:/mingw/bin/../lib/gcc/mingw32/4.5.0/../../../libmsvcrt.a(duyms00685.o)
_imp__putenv                                      c:/mingw/bin/../lib/gcc/mingw32/4.5.0/../../../libmoldname.a(dgzls00062.o)
_imp__sscanf                                      c:/mingw/bin/../lib/gcc/mingw32/4.5.0/../../../libmsvcrt.a(duyms00712.o)
_imp__strcmp                                      c:/mingw/bin/../lib/gcc/mingw32/4.5.0/../../../libmsvcrt.a(duyms00715.o)
_imp__strcpy                                      c:/mingw/bin/../lib/gcc/mingw32/4.5.0/../../../libmsvcrt.a(duyms00717.o)
_imp__strftime                                    c:/mingw/bin/../lib/gcc/mingw32/4.5.0/../../../libmsvcrt.a(duyms00720.o)
_imp__strlen                                      c:/mingw/bin/../lib/gcc/mingw32/4.5.0/../../../libmsvcrt.a(duyms00721.o)
_imp__strncmp                                     c:/mingw/bin/../lib/gcc/mingw32/4.5.0/../../../libmsvcrt.a(duyms00723.o)
_imp__strstr                                      c:/mingw/bin/../lib/gcc/mingw32/4.5.0/../../../libmsvcrt.a(duyms00728.o)
_imp__time                                        c:/mingw/bin/../lib/gcc/mingw32/4.5.0/../../../libmsvcrt.a(duyms00739.o)
_imp__vfprintf                                    c:/mingw/bin/../lib/gcc/mingw32/4.5.0/../../../libmsvcrt.a(duyms00748.o)
_libkernel32_a_iname                              c:/mingw/bin/../lib/gcc/mingw32/4.5.0/../../../libkernel32.a(dkjet.o)
                                                  c:/mingw/bin/../lib/gcc/mingw32/4.5.0/../../../libkernel32.a(dkjeh.o)
_libmoldname_a_iname                              c:/mingw/bin/../lib/gcc/mingw32/4.5.0/../../../libmoldname.a(dgzlt.o)
                                                  c:/mingw/bin/../lib/gcc/mingw32/4.5.0/../../../libmoldname.a(dgzlh.o)
_libmsvcrt_a_iname                                c:/mingw/bin/../lib/gcc/mingw32/4.5.0/../../../libmsvcrt.a(duymt.o)
                                                  c:/mingw/bin/../lib/gcc/mingw32/4.5.0/../../../libmsvcrt.a(duymh.o)
_onexit                                           c:/mingw/bin/../lib/gcc/mingw32/4.5.0/../../../dllcrt2.o
_pei386_runtime_relocator                         c:/mingw/bin/../lib/gcc/mingw32/4.5.0/../../../libmingw32.a(pseudo-reloc.o)
                                                  c:/mingw/bin/../lib/gcc/mingw32/4.5.0/../../../dllcrt2.o
_tls_end                                          c:/mingw/bin/../lib/gcc/mingw32/4.5.0/../../../libmingw32.a(tlssup.o)
_tls_index                                        c:/mingw/bin/../lib/gcc/mingw32/4.5.0/../../../libmingw32.a(tlssup.o)
_tls_start                                        c:/mingw/bin/../lib/gcc/mingw32/4.5.0/../../../libmingw32.a(tlssup.o)
_tls_used                                         c:/mingw/bin/../lib/gcc/mingw32/4.5.0/../../../libmingw32.a(tlssup.o)
abort                                             c:/mingw/bin/../lib/gcc/mingw32/4.5.0/../../../libmsvcrt.a(duyms00583.o)
                                                  c:/mingw/bin/../lib/gcc/mingw32/4.5.0/../../../libmingw32.a(pseudo-reloc.o)
atexit                                            c:/mingw/bin/../lib/gcc/mingw32/4.5.0/../../../dllcrt2.o
                                                  c:/mingw/bin/../lib/gcc/mingw32/4.5.0/crtend.o
                                                  c:/mingw/bin/../lib/gcc/mingw32/4.5.0/../../../libmingw32.a(gccmain.o)
calloc                                            c:/mingw/bin/../lib/gcc/mingw32/4.5.0/../../../libmsvcrt.a(duyms00595.o)
                                                  c:/mingw/bin/../lib/gcc/mingw32/4.5.0/../../../libmingw32.a(tlsthrd.o)
durationOptimize                                  mrp-task-manager.o
fflush                                            c:/mingw/bin/../lib/gcc/mingw32/4.5.0/../../../libmsvcrt.a(duyms00610.o)
                                                  c:/mingw/bin/../lib/gcc/mingw32/4.5.0/../../../dllcrt2.o
findAllAssignmentRresource                        mrp-task-manager.o
findMinResource                                   mrp-task-manager.o
findMostOccupiedTask                              mrp-task-manager.o
findNotAssignmentRresource                        mrp-task-manager.o
findOccupiedTimeTasks                             mrp-task-manager.o
floor                                             c:/mingw/bin/../lib/gcc/mingw32/4.5.0/../../../libmsvcrt.a(duyms00616.o)
                                                  mrp-task-manager.o
free                                              c:/mingw/bin/../lib/gcc/mingw32/4.5.0/../../../libmsvcrt.a(duyms00625.o)
                                                  c:/mingw/bin/../lib/gcc/mingw32/4.5.0/../../../libmingw32.a(tlsthrd.o)
                                                  c:/mingw/bin/../lib/gcc/mingw32/4.5.0/../../../dllcrt2.o
fwrite                                            c:/mingw/bin/../lib/gcc/mingw32/4.5.0/../../../libmsvcrt.a(duyms00633.o)
                                                  c:/mingw/bin/../lib/gcc/mingw32/4.5.0/../../../libmingw32.a(pseudo-reloc.o)
g_ascii_strcasecmp                                C:/MinGW/msys/1.0/dev/lib/libglib-2.0.dll.a(d000024.o)
                                                  mrp-project.o
g_assertion_message                               C:/MinGW/msys/1.0/dev/lib/libglib-2.0.dll.a(d000036.o)
                                                  mrp-time.o
                                                  mrp-property.o
                                                  mrp-task-manager.o
                                                  mrp-object.o
g_assertion_message_expr                          C:/MinGW/msys/1.0/dev/lib/libglib-2.0.dll.a(d000040.o)
                                                  mrp-task.o
                                                  mrp-application.o
g_boxed_type_register_static                      C:/MinGW/msys/1.0/dev/lib/libgobject-2.0.dll.a(d000011.o)
                                                  mrp-property.o
                                                  mrp-task.o
                                                  mrp-day.o
                                                  mrp-calendar.o
g_build_filename                                  C:/MinGW/msys/1.0/dev/lib/libglib-2.0.dll.a(d000126.o)
                                                  mrp-paths-win32.o
                                                  mrp-file-module.o
g_cclosure_marshal_VOID__BOOLEAN                  C:/MinGW/msys/1.0/dev/lib/libgobject-2.0.dll.a(d000016.o)
                                                  mrp-project.o
g_cclosure_marshal_VOID__OBJECT                   C:/MinGW/msys/1.0/dev/lib/libgobject-2.0.dll.a(d000025.o)
                                                  mrp-task.o
                                                  mrp-resource.o
                                                  mrp-project.o
g_cclosure_marshal_VOID__POINTER                  C:/MinGW/msys/1.0/dev/lib/libgobject-2.0.dll.a(d000027.o)
                                                  mrp-task.o
                                                  mrp-project.o
g_cclosure_marshal_VOID__VOID                     C:/MinGW/msys/1.0/dev/lib/libgobject-2.0.dll.a(d000034.o)
                                                  mrp-relation.o
                                                  mrp-task.o
                                                  mrp-project.o
                                                  mrp-object.o
                                                  mrp-calendar.o
g_date_add_days                                   C:/MinGW/msys/1.0/dev/lib/libglib-2.0.dll.a(d000193.o)
                                                  mrp-time.o
g_date_add_months                                 C:/MinGW/msys/1.0/dev/lib/libglib-2.0.dll.a(d000194.o)
                                                  mrp-time.o
g_date_add_years                                  C:/MinGW/msys/1.0/dev/lib/libglib-2.0.dll.a(d000195.o)
                                                  mrp-time.o
g_date_clear                                      C:/MinGW/msys/1.0/dev/lib/libglib-2.0.dll.a(d000197.o)
                                                  mrp-time.o
g_date_compare                                    C:/MinGW/msys/1.0/dev/lib/libglib-2.0.dll.a(d000198.o)
                                                  mrp-time.o
g_date_days_between                               C:/MinGW/msys/1.0/dev/lib/libglib-2.0.dll.a(d000199.o)
                                                  mrp-time.o
g_date_get_day                                    C:/MinGW/msys/1.0/dev/lib/libglib-2.0.dll.a(d000201.o)
                                                  mrp-time.o
g_date_get_julian                                 C:/MinGW/msys/1.0/dev/lib/libglib-2.0.dll.a(d000205.o)
                                                  mrp-time.o
g_date_get_month                                  C:/MinGW/msys/1.0/dev/lib/libglib-2.0.dll.a(d000208.o)
                                                  mrp-time.o
g_date_get_weekday                                C:/MinGW/msys/1.0/dev/lib/libglib-2.0.dll.a(d000211.o)
                                                  mrp-time.o
g_date_get_year                                   C:/MinGW/msys/1.0/dev/lib/libglib-2.0.dll.a(d000212.o)
                                                  mrp-time.o
g_date_set_day                                    C:/MinGW/msys/1.0/dev/lib/libglib-2.0.dll.a(d000220.o)
                                                  mrp-time.o
g_date_set_dmy                                    C:/MinGW/msys/1.0/dev/lib/libglib-2.0.dll.a(d000221.o)
                                                  mrp-time.o
g_date_set_month                                  C:/MinGW/msys/1.0/dev/lib/libglib-2.0.dll.a(d000223.o)
                                                  mrp-time.o
g_date_strftime                                   C:/MinGW/msys/1.0/dev/lib/libglib-2.0.dll.a(d000229.o)
                                                  mrp-time.o
g_date_subtract_days                              C:/MinGW/msys/1.0/dev/lib/libglib-2.0.dll.a(d000230.o)
                                                  mrp-time.o
g_date_subtract_months                            C:/MinGW/msys/1.0/dev/lib/libglib-2.0.dll.a(d000231.o)
                                                  mrp-time.o
g_date_subtract_years                             C:/MinGW/msys/1.0/dev/lib/libglib-2.0.dll.a(d000232.o)
                                                  mrp-time.o
g_dir_close                                       C:/MinGW/msys/1.0/dev/lib/libglib-2.0.dll.a(d000290.o)
                                                  mrp-file-module.o
g_dir_open_utf8                                   C:/MinGW/msys/1.0/dev/lib/libglib-2.0.dll.a(d000291.o)
                                                  mrp-file-module.o
g_dir_read_name_utf8                              C:/MinGW/msys/1.0/dev/lib/libglib-2.0.dll.a(d000292.o)
                                                  mrp-file-module.o
g_enum_register_static                            C:/MinGW/msys/1.0/dev/lib/libgobject-2.0.dll.a(d000060.o)
                                                  mrp-types.o
g_file_get_contents_utf8                          C:/MinGW/msys/1.0/dev/lib/libglib-2.0.dll.a(d000309.o)
                                                  mrp-project.o
g_free                                            C:/MinGW/msys/1.0/dev/lib/libglib-2.0.dll.a(d000324.o)
                                                  mrp-paths-win32.o
                                                  mrp-time.o
                                                  mrp-property.o
                                                  mrp-types.o
                                                  mrp-task.o
                                                  mrp-task-manager.o
                                                  mrp-storage-module-factory.o
                                                  mrp-resource.o
                                                  mrp-project.o
                                                  mrp-file-module.o
                                                  mrp-object.o
                                                  mrp-group.o
                                                  mrp-day.o
                                                  mrp-calendar.o
                                                  mrp-qualification.o
                                                  mrp-application.o
g_getenv_utf8                                     C:/MinGW/msys/1.0/dev/lib/libglib-2.0.dll.a(d000345.o)
                                                  mrp-time.o
g_hash_table_destroy                              C:/MinGW/msys/1.0/dev/lib/libglib-2.0.dll.a(d000346.o)
                                                  mrp-calendar.o
g_hash_table_foreach                              C:/MinGW/msys/1.0/dev/lib/libglib-2.0.dll.a(d000348.o)
                                                  mrp-project.o
                                                  mrp-calendar.o
g_hash_table_insert                               C:/MinGW/msys/1.0/dev/lib/libglib-2.0.dll.a(d000353.o)
                                                  mrp-storage-module-factory.o
                                                  mrp-project.o
                                                  mrp-object.o
                                                  mrp-calendar.o
                                                  mrp-application.o
g_hash_table_lookup                               C:/MinGW/msys/1.0/dev/lib/libglib-2.0.dll.a(d000359.o)
                                                  mrp-storage-module-factory.o
                                                  mrp-project.o
                                                  mrp-object.o
                                                  mrp-calendar.o
                                                  mrp-application.o
g_hash_table_new                                  C:/MinGW/msys/1.0/dev/lib/libglib-2.0.dll.a(d000361.o)
                                                  mrp-storage-module-factory.o
                                                  mrp-object.o
                                                  mrp-calendar.o
                                                  mrp-application.o
g_hash_table_new_full                             C:/MinGW/msys/1.0/dev/lib/libglib-2.0.dll.a(d000362.o)
                                                  mrp-project.o
                                                  mrp-calendar.o
g_hash_table_remove                               C:/MinGW/msys/1.0/dev/lib/libglib-2.0.dll.a(d000364.o)
                                                  mrp-project.o
                                                  mrp-calendar.o
                                                  mrp-application.o
g_hash_table_steal                                C:/MinGW/msys/1.0/dev/lib/libglib-2.0.dll.a(d000368.o)
                                                  mrp-object.o
g_list_append                                     C:/MinGW/msys/1.0/dev/lib/libglib-2.0.dll.a(d000505.o)
                                                  mrp-task-manager.o
                                                  mrp-project.o
g_list_concat                                     C:/MinGW/msys/1.0/dev/lib/libglib-2.0.dll.a(d000506.o)
                                                  mrp-task-manager.o
g_list_copy                                       C:/MinGW/msys/1.0/dev/lib/libglib-2.0.dll.a(d000507.o)
                                                  mrp-task.o
                                                  mrp-task-manager.o
                                                  mrp-project.o
                                                  mrp-calendar.o
g_list_find                                       C:/MinGW/msys/1.0/dev/lib/libglib-2.0.dll.a(d000509.o)
                                                  mrp-task-manager.o
g_list_foreach                                    C:/MinGW/msys/1.0/dev/lib/libglib-2.0.dll.a(d000512.o)
                                                  mrp-task.o
                                                  mrp-task-manager.o
                                                  mrp-resource.o
                                                  mrp-project.o
                                                  mrp-group.o
                                                  mrp-calendar.o
                                                  mrp-application.o
g_list_free                                       C:/MinGW/msys/1.0/dev/lib/libglib-2.0.dll.a(d000513.o)
                                                  mrp-types.o
                                                  mrp-task.o
                                                  mrp-task-manager.o
                                                  mrp-resource.o
                                                  mrp-project.o
                                                  mrp-group.o
                                                  mrp-calendar.o
                                                  mrp-application.o
g_list_index                                      C:/MinGW/msys/1.0/dev/lib/libglib-2.0.dll.a(d000515.o)
                                                  mrp-project.o
g_list_length                                     C:/MinGW/msys/1.0/dev/lib/libglib-2.0.dll.a(d000521.o)
                                                  mrp-task-manager.o
g_list_nth_data                                   C:/MinGW/msys/1.0/dev/lib/libglib-2.0.dll.a(d000523.o)
                                                  mrp-task-manager.o
g_list_prepend                                    C:/MinGW/msys/1.0/dev/lib/libglib-2.0.dll.a(d000527.o)
                                                  mrp-types.o
                                                  mrp-task.o
                                                  mrp-task-manager.o
                                                  mrp-resource.o
                                                  mrp-project.o
                                                  mrp-file-module.o
                                                  mrp-group.o
                                                  mrp-calendar.o
                                                  mrp-application.o
g_list_remove                                     C:/MinGW/msys/1.0/dev/lib/libglib-2.0.dll.a(d000529.o)
                                                  mrp-task.o
                                                  mrp-task-manager.o
                                                  mrp-resource.o
                                                  mrp-project.o
                                                  mrp-group.o
                                                  mrp-calendar.o
g_list_remove_link                                C:/MinGW/msys/1.0/dev/lib/libglib-2.0.dll.a(d000531.o)
                                                  mrp-task-manager.o
g_list_reverse                                    C:/MinGW/msys/1.0/dev/lib/libglib-2.0.dll.a(d000532.o)
                                                  mrp-types.o
                                                  mrp-task-manager.o
                                                  mrp-calendar.o
g_list_sort                                       C:/MinGW/msys/1.0/dev/lib/libglib-2.0.dll.a(d000533.o)
                                                  mrp-task.o
                                                  mrp-task-manager.o
                                                  mrp-resource.o
                                                  mrp-calendar.o
g_locale_to_utf8                                  C:/MinGW/msys/1.0/dev/lib/libglib-2.0.dll.a(d000537.o)
                                                  mrp-time.o
g_log                                             C:/MinGW/msys/1.0/dev/lib/libglib-2.0.dll.a(d000538.o)
                                                  mrp-time.o
                                                  mrp-property.o
                                                  mrp-relation.o
                                                  mrp-task.o
                                                  mrp-task-manager.o
                                                  mrp-storage-module-factory.o
                                                  mrp-resource.o
                                                  mrp-project.o
                                                  mrp-file-module.o
                                                  mrp-object.o
                                                  mrp-group.o
                                                  mrp-calendar.o
                                                  mrp-qualification.o
                                                  mrp-group-assignment.o
                                                  mrp-assignment.o
                                                  mrp-application.o
g_malloc                                          C:/MinGW/msys/1.0/dev/lib/libglib-2.0.dll.a(d000581.o)
                                                  mrp-time.o
g_malloc0                                         C:/MinGW/msys/1.0/dev/lib/libglib-2.0.dll.a(d000582.o)
                                                  mrp-time.o
g_malloc0_n                                       C:/MinGW/msys/1.0/dev/lib/libglib-2.0.dll.a(d000583.o)
                                                  mrp-time.o
                                                  mrp-relation.o
                                                  mrp-task.o
                                                  mrp-task-manager.o
                                                  mrp-resource.o
                                                  mrp-project.o
                                                  mrp-file-module.o
                                                  mrp-object.o
                                                  mrp-group.o
                                                  mrp-day.o
                                                  mrp-calendar.o
                                                  mrp-qualification.o
                                                  mrp-group-assignment.o
                                                  mrp-assignment.o
                                                  mrp-application.o
g_malloc_n                                        C:/MinGW/msys/1.0/dev/lib/libglib-2.0.dll.a(d000584.o)
                                                  mrp-task.o
                                                  mrp-task-manager.o
g_module_build_path                               C:/MinGW/msys/1.0/dev/lib/libgmodule-2.0.dll.a(d000001.o)
                                                  mrp-storage-module-factory.o
g_module_close                                    C:/MinGW/msys/1.0/dev/lib/libgmodule-2.0.dll.a(d000002.o)
                                                  mrp-storage-module-factory.o
g_module_error                                    C:/MinGW/msys/1.0/dev/lib/libgmodule-2.0.dll.a(d000003.o)
                                                  mrp-storage-module-factory.o
                                                  mrp-file-module.o
g_module_open_utf8                                C:/MinGW/msys/1.0/dev/lib/libgmodule-2.0.dll.a(d000006.o)
                                                  mrp-storage-module-factory.o
                                                  mrp-file-module.o
g_module_symbol                                   C:/MinGW/msys/1.0/dev/lib/libgmodule-2.0.dll.a(d000008.o)
                                                  mrp-storage-module-factory.o
                                                  mrp-file-module.o
g_node_child_position                             C:/MinGW/msys/1.0/dev/lib/libglib-2.0.dll.a(d000638.o)
                                                  mrp-task.o
g_node_depth                                      C:/MinGW/msys/1.0/dev/lib/libglib-2.0.dll.a(d000642.o)
                                                  mrp-task.o
g_node_destroy                                    C:/MinGW/msys/1.0/dev/lib/libglib-2.0.dll.a(d000643.o)
                                                  mrp-task.o
g_node_insert                                     C:/MinGW/msys/1.0/dev/lib/libglib-2.0.dll.a(d000648.o)
                                                  mrp-task.o
g_node_insert_after                               C:/MinGW/msys/1.0/dev/lib/libglib-2.0.dll.a(d000649.o)
                                                  mrp-task.o
g_node_insert_before                              C:/MinGW/msys/1.0/dev/lib/libglib-2.0.dll.a(d000650.o)
                                                  mrp-task.o
g_node_last_child                                 C:/MinGW/msys/1.0/dev/lib/libglib-2.0.dll.a(d000652.o)
                                                  mrp-task.o
g_node_n_children                                 C:/MinGW/msys/1.0/dev/lib/libglib-2.0.dll.a(d000655.o)
                                                  mrp-task.o
g_node_new                                        C:/MinGW/msys/1.0/dev/lib/libglib-2.0.dll.a(d000657.o)
                                                  mrp-task.o
g_node_nth_child                                  C:/MinGW/msys/1.0/dev/lib/libglib-2.0.dll.a(d000658.o)
                                                  mrp-task.o
g_node_prepend                                    C:/MinGW/msys/1.0/dev/lib/libglib-2.0.dll.a(d000660.o)
                                                  mrp-task.o
g_node_traverse                                   C:/MinGW/msys/1.0/dev/lib/libglib-2.0.dll.a(d000663.o)
                                                  mrp-task.o
                                                  mrp-task-manager.o
g_node_unlink                                     C:/MinGW/msys/1.0/dev/lib/libglib-2.0.dll.a(d000664.o)
                                                  mrp-task.o
g_object_class_find_property                      C:/MinGW/msys/1.0/dev/lib/libgobject-2.0.dll.a(d000078.o)
                                                  mrp-object.o
g_object_class_install_property                   C:/MinGW/msys/1.0/dev/lib/libgobject-2.0.dll.a(d000080.o)
                                                  mrp-relation.o
                                                  mrp-task.o
                                                  mrp-task-manager.o
                                                  mrp-resource.o
                                                  mrp-project.o
                                                  mrp-object.o
                                                  mrp-group.o
                                                  mrp-calendar.o
                                                  mrp-qualification.o
                                                  mrp-group-assignment.o
                                                  mrp-assignment.o
g_object_get                                      C:/MinGW/msys/1.0/dev/lib/libgobject-2.0.dll.a(d000088.o)
                                                  mrp-project.o
g_object_get_data                                 C:/MinGW/msys/1.0/dev/lib/libgobject-2.0.dll.a(d000089.o)
                                                  mrp-project.o
g_object_get_property                             C:/MinGW/msys/1.0/dev/lib/libgobject-2.0.dll.a(d000090.o)
                                                  mrp-object.o
g_object_new                                      C:/MinGW/msys/1.0/dev/lib/libgobject-2.0.dll.a(d000098.o)
                                                  mrp-task.o
                                                  mrp-task-manager.o
                                                  mrp-storage-module-factory.o
                                                  mrp-resource.o
                                                  mrp-project.o
                                                  mrp-group.o
                                                  mrp-calendar.o
                                                  mrp-qualification.o
                                                  mrp-group-assignment.o
                                                  mrp-assignment.o
                                                  mrp-application.o
g_object_notify                                   C:/MinGW/msys/1.0/dev/lib/libgobject-2.0.dll.a(d000101.o)
                                                  mrp-task.o
                                                  mrp-task-manager.o
g_object_ref                                      C:/MinGW/msys/1.0/dev/lib/libgobject-2.0.dll.a(d000103.o)
                                                  mrp-relation.o
                                                  mrp-task.o
                                                  mrp-resource.o
                                                  mrp-project.o
                                                  mrp-object.o
                                                  mrp-group.o
                                                  mrp-calendar.o
                                                  mrp-qualification.o
                                                  mrp-group-assignment.o
                                                  mrp-assignment.o
g_object_set                                      C:/MinGW/msys/1.0/dev/lib/libgobject-2.0.dll.a(d000108.o)
                                                  mrp-task.o
                                                  mrp-task-manager.o
                                                  mrp-resource.o
                                                  mrp-project.o
                                                  mrp-calendar.o
g_object_set_property                             C:/MinGW/msys/1.0/dev/lib/libgobject-2.0.dll.a(d000111.o)
                                                  mrp-object.o
g_object_unref                                    C:/MinGW/msys/1.0/dev/lib/libgobject-2.0.dll.a(d000118.o)
                                                  mrp-relation.o
                                                  mrp-task.o
                                                  mrp-task-manager.o
                                                  mrp-resource.o
                                                  mrp-project.o
                                                  mrp-object.o
                                                  mrp-group.o
                                                  mrp-calendar.o
                                                  mrp-qualification.o
                                                  mrp-group-assignment.o
                                                  mrp-assignment.o
g_param_spec_boolean                              C:/MinGW/msys/1.0/dev/lib/libgobject-2.0.dll.a(d000122.o)
                                                  mrp-task.o
                                                  mrp-resource.o
g_param_spec_boxed                                C:/MinGW/msys/1.0/dev/lib/libgobject-2.0.dll.a(d000123.o)
                                                  mrp-task.o
g_param_spec_enum                                 C:/MinGW/msys/1.0/dev/lib/libgobject-2.0.dll.a(d000126.o)
                                                  mrp-relation.o
                                                  mrp-task.o
g_param_spec_float                                C:/MinGW/msys/1.0/dev/lib/libgobject-2.0.dll.a(d000128.o)
                                                  mrp-property.o
                                                  mrp-resource.o
g_param_spec_get_qdata                            C:/MinGW/msys/1.0/dev/lib/libgobject-2.0.dll.a(d000132.o)
                                                  mrp-property.o
g_param_spec_int                                  C:/MinGW/msys/1.0/dev/lib/libgobject-2.0.dll.a(d000135.o)
                                                  mrp-property.o
                                                  mrp-relation.o
                                                  mrp-task.o
                                                  mrp-resource.o
                                                  mrp-qualification.o
                                                  mrp-group-assignment.o
                                                  mrp-assignment.o
g_param_spec_long                                 C:/MinGW/msys/1.0/dev/lib/libgobject-2.0.dll.a(d000138.o)
                                                  mrp-time.o
g_param_spec_object                               C:/MinGW/msys/1.0/dev/lib/libgobject-2.0.dll.a(d000139.o)
                                                  mrp-relation.o
                                                  mrp-task.o
                                                  mrp-task-manager.o
                                                  mrp-resource.o
                                                  mrp-project.o
                                                  mrp-object.o
                                                  mrp-qualification.o
                                                  mrp-group-assignment.o
                                                  mrp-assignment.o
g_param_spec_pointer                              C:/MinGW/msys/1.0/dev/lib/libgobject-2.0.dll.a(d000142.o)
                                                  mrp-resource.o
                                                  mrp-project.o
                                                  mrp-calendar.o
g_param_spec_pool_insert                          C:/MinGW/msys/1.0/dev/lib/libgobject-2.0.dll.a(d000143.o)
                                                  mrp-project.o
g_param_spec_pool_list_owned                      C:/MinGW/msys/1.0/dev/lib/libgobject-2.0.dll.a(d000145.o)
                                                  mrp-project.o
g_param_spec_pool_lookup                          C:/MinGW/msys/1.0/dev/lib/libgobject-2.0.dll.a(d000146.o)
                                                  mrp-project.o
g_param_spec_pool_new                             C:/MinGW/msys/1.0/dev/lib/libgobject-2.0.dll.a(d000147.o)
                                                  mrp-project.o
g_param_spec_pool_remove                          C:/MinGW/msys/1.0/dev/lib/libgobject-2.0.dll.a(d000148.o)
                                                  mrp-project.o
g_param_spec_ref                                  C:/MinGW/msys/1.0/dev/lib/libgobject-2.0.dll.a(d000149.o)
                                                  mrp-property.o
g_param_spec_set_qdata                            C:/MinGW/msys/1.0/dev/lib/libgobject-2.0.dll.a(d000151.o)
                                                  mrp-property.o
g_param_spec_set_qdata_full                       C:/MinGW/msys/1.0/dev/lib/libgobject-2.0.dll.a(d000152.o)
                                                  mrp-property.o
g_param_spec_string                               C:/MinGW/msys/1.0/dev/lib/libgobject-2.0.dll.a(d000155.o)
                                                  mrp-property.o
                                                  mrp-task.o
                                                  mrp-resource.o
                                                  mrp-project.o
                                                  mrp-group.o
                                                  mrp-calendar.o
                                                  mrp-qualification.o
g_param_spec_unref                                C:/MinGW/msys/1.0/dev/lib/libgobject-2.0.dll.a(d000162.o)
                                                  mrp-property.o
g_param_spec_value_array                          C:/MinGW/msys/1.0/dev/lib/libgobject-2.0.dll.a(d000163.o)
                                                  mrp-property.o
g_param_value_set_default                         C:/MinGW/msys/1.0/dev/lib/libgobject-2.0.dll.a(d000168.o)
                                                  mrp-object.o
g_print                                           C:/MinGW/msys/1.0/dev/lib/libglib-2.0.dll.a(d000712.o)
                                                  mrp-task-manager.o
g_printf                                          C:/MinGW/msys/1.0/dev/lib/libglib-2.0.dll.a(d000714.o)
                                                  mrp-time.o
                                                  mrp-task-manager.o
g_ptr_array_add                                   C:/MinGW/msys/1.0/dev/lib/libglib-2.0.dll.a(d000718.o)
                                                  mrp-task-manager.o
g_ptr_array_free                                  C:/MinGW/msys/1.0/dev/lib/libglib-2.0.dll.a(d000720.o)
                                                  mrp-task-manager.o
g_ptr_array_new                                   C:/MinGW/msys/1.0/dev/lib/libglib-2.0.dll.a(d000721.o)
                                                  mrp-task-manager.o
g_ptr_array_sort                                  C:/MinGW/msys/1.0/dev/lib/libglib-2.0.dll.a(d000732.o)
                                                  mrp-task-manager.o
g_quark_from_static_string                        C:/MinGW/msys/1.0/dev/lib/libglib-2.0.dll.a(d000736.o)
                                                  mrp-error.o
                                                  mrp-property.o
g_quark_from_string                               C:/MinGW/msys/1.0/dev/lib/libglib-2.0.dll.a(d000737.o)
                                                  mrp-object.o
                                                  mrp-day.o
g_realloc                                         C:/MinGW/msys/1.0/dev/lib/libglib-2.0.dll.a(d000795.o)
                                                  mrp-time.o
g_return_if_fail_warning                          C:/MinGW/msys/1.0/dev/lib/libglib-2.0.dll.a(d000832.o)
                                                  mrp-time.o
                                                  mrp-property.o
                                                  mrp-relation.o
                                                  mrp-task.o
                                                  mrp-task-manager.o
                                                  mrp-storage-module.o
                                                  mrp-resource.o
                                                  mrp-project.o
                                                  mrp-file-module.o
                                                  mrp-object.o
                                                  mrp-group.o
                                                  mrp-day.o
                                                  mrp-calendar.o
                                                  mrp-qualification.o
                                                  mrp-group-assignment.o
                                                  mrp-assignment.o
                                                  mrp-application.o
                                                  mrp-marshal.o
g_set_error                                       C:/MinGW/msys/1.0/dev/lib/libglib-2.0.dll.a(d000891.o)
                                                  mrp-task.o
                                                  mrp-task-manager.o
                                                  mrp-project.o
                                                  mrp-file-module.o
g_setenv_utf8                                     C:/MinGW/msys/1.0/dev/lib/libglib-2.0.dll.a(d000896.o)
                                                  mrp-time.o
g_signal_connect_data                             C:/MinGW/msys/1.0/dev/lib/libgobject-2.0.dll.a(d000180.o)
                                                  mrp-task.o
                                                  mrp-task-manager.o
                                                  mrp-resource.o
                                                  mrp-group.o
g_signal_connect_object                           C:/MinGW/msys/1.0/dev/lib/libgobject-2.0.dll.a(d000181.o)
                                                  mrp-task-manager.o
                                                  mrp-resource.o
                                                  mrp-project.o
                                                  mrp-object.o
g_signal_emit                                     C:/MinGW/msys/1.0/dev/lib/libgobject-2.0.dll.a(d000182.o)
                                                  mrp-task.o
                                                  mrp-resource.o
                                                  mrp-project.o
                                                  mrp-object.o
                                                  mrp-calendar.o
g_signal_emit_by_name                             C:/MinGW/msys/1.0/dev/lib/libgobject-2.0.dll.a(d000183.o)
                                                  mrp-day.o
g_signal_handlers_block_matched                   C:/MinGW/msys/1.0/dev/lib/libgobject-2.0.dll.a(d000192.o)
                                                  mrp-task-manager.o
g_signal_handlers_disconnect_matched              C:/MinGW/msys/1.0/dev/lib/libgobject-2.0.dll.a(d000194.o)
                                                  mrp-task.o
                                                  mrp-task-manager.o
                                                  mrp-resource.o
                                                  mrp-project.o
                                                  mrp-object.o
                                                  mrp-group.o
g_signal_handlers_unblock_matched                 C:/MinGW/msys/1.0/dev/lib/libgobject-2.0.dll.a(d000195.o)
                                                  mrp-task-manager.o
g_signal_new                                      C:/MinGW/msys/1.0/dev/lib/libgobject-2.0.dll.a(d000200.o)
                                                  mrp-relation.o
                                                  mrp-task.o
                                                  mrp-resource.o
                                                  mrp-project.o
                                                  mrp-object.o
                                                  mrp-calendar.o
g_str_equal                                       C:/MinGW/msys/1.0/dev/lib/libglib-2.0.dll.a(d000996.o)
                                                  mrp-storage-module-factory.o
g_str_has_suffix                                  C:/MinGW/msys/1.0/dev/lib/libglib-2.0.dll.a(d000998.o)
                                                  mrp-file-module.o
g_str_hash                                        C:/MinGW/msys/1.0/dev/lib/libglib-2.0.dll.a(d000999.o)
                                                  mrp-storage-module-factory.o
g_strcmp0                                         C:/MinGW/msys/1.0/dev/lib/libglib-2.0.dll.a(d001004.o)
                                                  mrp-task-manager.o
g_strconcat                                       C:/MinGW/msys/1.0/dev/lib/libglib-2.0.dll.a(d001006.o)
                                                  mrp-time.o
                                                  mrp-storage-module-factory.o
                                                  mrp-project.o
g_strdup                                          C:/MinGW/msys/1.0/dev/lib/libglib-2.0.dll.a(d001009.o)
                                                  mrp-time.o
                                                  mrp-property.o
                                                  mrp-types.o
                                                  mrp-task.o
                                                  mrp-resource.o
                                                  mrp-project.o
                                                  mrp-group.o
                                                  mrp-day.o
                                                  mrp-calendar.o
                                                  mrp-qualification.o
g_strdup_printf                                   C:/MinGW/msys/1.0/dev/lib/libglib-2.0.dll.a(d001010.o)
                                                  mrp-time.o
                                                  mrp-project.o
g_string_free                                     C:/MinGW/msys/1.0/dev/lib/libglib-2.0.dll.a(d001035.o)
                                                  mrp-task-manager.o
g_string_insert_c                                 C:/MinGW/msys/1.0/dev/lib/libglib-2.0.dll.a(d001038.o)
                                                  mrp-task-manager.o
g_string_new                                      C:/MinGW/msys/1.0/dev/lib/libglib-2.0.dll.a(d001041.o)
                                                  mrp-task-manager.o
g_type_check_class_cast                           C:/MinGW/msys/1.0/dev/lib/libgobject-2.0.dll.a(d000220.o)
                                                  mrp-relation.o
                                                  mrp-task.o
                                                  mrp-task-manager.o
                                                  mrp-storage-module-factory.o
                                                  mrp-storage-module.o
                                                  mrp-resource.o
                                                  mrp-project.o
                                                  mrp-object.o
                                                  mrp-group.o
                                                  mrp-calendar.o
                                                  mrp-qualification.o
                                                  mrp-group-assignment.o
                                                  mrp-assignment.o
                                                  mrp-application.o
g_type_check_instance_cast                        C:/MinGW/msys/1.0/dev/lib/libgobject-2.0.dll.a(d000223.o)
                                                  mrp-property.o
                                                  mrp-relation.o
                                                  mrp-task.o
                                                  mrp-task-manager.o
                                                  mrp-storage-module-factory.o
                                                  mrp-resource.o
                                                  mrp-project.o
                                                  mrp-object.o
                                                  mrp-group.o
                                                  mrp-calendar.o
                                                  mrp-qualification.o
                                                  mrp-group-assignment.o
                                                  mrp-assignment.o
                                                  mrp-application.o
g_type_check_instance_is_a                        C:/MinGW/msys/1.0/dev/lib/libgobject-2.0.dll.a(d000224.o)
                                                  mrp-relation.o
                                                  mrp-task.o
                                                  mrp-task-manager.o
                                                  mrp-storage-module.o
                                                  mrp-resource.o
                                                  mrp-project.o
                                                  mrp-file-module.o
                                                  mrp-object.o
                                                  mrp-group.o
                                                  mrp-calendar.o
                                                  mrp-qualification.o
                                                  mrp-group-assignment.o
                                                  mrp-assignment.o
                                                  mrp-application.o
g_type_class_peek_parent                          C:/MinGW/msys/1.0/dev/lib/libgobject-2.0.dll.a(d000232.o)
                                                  mrp-relation.o
                                                  mrp-task.o
                                                  mrp-task-manager.o
                                                  mrp-storage-module-factory.o
                                                  mrp-storage-module.o
                                                  mrp-resource.o
                                                  mrp-project.o
                                                  mrp-object.o
                                                  mrp-group.o
                                                  mrp-calendar.o
                                                  mrp-qualification.o
                                                  mrp-group-assignment.o
                                                  mrp-assignment.o
                                                  mrp-application.o
g_type_module_get_type                            C:/MinGW/msys/1.0/dev/lib/libgobject-2.0.dll.a(d000259.o)
                                                  mrp-storage-module-factory.o
                                                  mrp-project.o
g_type_module_set_name                            C:/MinGW/msys/1.0/dev/lib/libgobject-2.0.dll.a(d000263.o)
                                                  mrp-storage-module-factory.o
g_type_module_unuse                               C:/MinGW/msys/1.0/dev/lib/libgobject-2.0.dll.a(d000264.o)
                                                  mrp-project.o
g_type_module_use                                 C:/MinGW/msys/1.0/dev/lib/libgobject-2.0.dll.a(d000265.o)
                                                  mrp-storage-module-factory.o
g_type_name                                       C:/MinGW/msys/1.0/dev/lib/libgobject-2.0.dll.a(d000266.o)
                                                  mrp-relation.o
                                                  mrp-task.o
                                                  mrp-task-manager.o
                                                  mrp-resource.o
                                                  mrp-project.o
                                                  mrp-object.o
                                                  mrp-group.o
                                                  mrp-calendar.o
                                                  mrp-qualification.o
                                                  mrp-group-assignment.o
                                                  mrp-assignment.o
g_type_register_static                            C:/MinGW/msys/1.0/dev/lib/libgobject-2.0.dll.a(d000280.o)
                                                  mrp-relation.o
                                                  mrp-task.o
                                                  mrp-task-manager.o
                                                  mrp-storage-module-factory.o
                                                  mrp-storage-module.o
                                                  mrp-resource.o
                                                  mrp-project.o
                                                  mrp-object.o
                                                  mrp-group.o
                                                  mrp-calendar.o
                                                  mrp-qualification.o
                                                  mrp-group-assignment.o
                                                  mrp-assignment.o
                                                  mrp-application.o
g_type_value_table_peek                           C:/MinGW/msys/1.0/dev/lib/libgobject-2.0.dll.a(d000286.o)
                                                  mrp-object.o
g_unichar_to_utf8                                 C:/MinGW/msys/1.0/dev/lib/libglib-2.0.dll.a(d001212.o)
                                                  mrp-time.o
g_unsetenv_utf8                                   C:/MinGW/msys/1.0/dev/lib/libglib-2.0.dll.a(d001222.o)
                                                  mrp-time.o
g_utf8_get_char                                   C:/MinGW/msys/1.0/dev/lib/libglib-2.0.dll.a(d001237.o)
                                                  mrp-time.o
g_value_copy                                      C:/MinGW/msys/1.0/dev/lib/libgobject-2.0.dll.a(d000298.o)
                                                  mrp-object.o
g_value_dup_string                                C:/MinGW/msys/1.0/dev/lib/libgobject-2.0.dll.a(d000302.o)
                                                  mrp-project.o
g_value_get_boolean                               C:/MinGW/msys/1.0/dev/lib/libgobject-2.0.dll.a(d000305.o)
                                                  mrp-task.o
                                                  mrp-resource.o
g_value_get_boxed                                 C:/MinGW/msys/1.0/dev/lib/libgobject-2.0.dll.a(d000306.o)
                                                  mrp-task.o
g_value_get_enum                                  C:/MinGW/msys/1.0/dev/lib/libgobject-2.0.dll.a(d000309.o)
                                                  mrp-relation.o
                                                  mrp-task.o
g_value_get_float                                 C:/MinGW/msys/1.0/dev/lib/libgobject-2.0.dll.a(d000311.o)
                                                  mrp-resource.o
g_value_get_int                                   C:/MinGW/msys/1.0/dev/lib/libgobject-2.0.dll.a(d000313.o)
                                                  mrp-relation.o
                                                  mrp-task.o
                                                  mrp-resource.o
                                                  mrp-qualification.o
                                                  mrp-group-assignment.o
                                                  mrp-assignment.o
g_value_get_long                                  C:/MinGW/msys/1.0/dev/lib/libgobject-2.0.dll.a(d000315.o)
                                                  mrp-task.o
                                                  mrp-project.o
g_value_get_object                                C:/MinGW/msys/1.0/dev/lib/libgobject-2.0.dll.a(d000316.o)
                                                  mrp-relation.o
                                                  mrp-task.o
                                                  mrp-task-manager.o
                                                  mrp-resource.o
                                                  mrp-project.o
                                                  mrp-object.o
                                                  mrp-qualification.o
                                                  mrp-group-assignment.o
                                                  mrp-assignment.o
g_value_get_pointer                               C:/MinGW/msys/1.0/dev/lib/libgobject-2.0.dll.a(d000318.o)
                                                  mrp-resource.o
                                                  mrp-project.o
                                                  mrp-calendar.o
g_value_get_string                                C:/MinGW/msys/1.0/dev/lib/libgobject-2.0.dll.a(d000319.o)
                                                  mrp-task.o
                                                  mrp-resource.o
                                                  mrp-project.o
                                                  mrp-group.o
                                                  mrp-calendar.o
                                                  mrp-qualification.o
g_value_get_type                                  C:/MinGW/msys/1.0/dev/lib/libgobject-2.0.dll.a(d000320.o)
                                                  mrp-object.o
g_value_init                                      C:/MinGW/msys/1.0/dev/lib/libgobject-2.0.dll.a(d000326.o)
                                                  mrp-object.o
g_value_peek_pointer                              C:/MinGW/msys/1.0/dev/lib/libgobject-2.0.dll.a(d000327.o)
                                                  mrp-marshal.o
g_value_set_boolean                               C:/MinGW/msys/1.0/dev/lib/libgobject-2.0.dll.a(d000330.o)
                                                  mrp-task.o
                                                  mrp-resource.o
g_value_set_boxed                                 C:/MinGW/msys/1.0/dev/lib/libgobject-2.0.dll.a(d000331.o)
                                                  mrp-task.o
g_value_set_enum                                  C:/MinGW/msys/1.0/dev/lib/libgobject-2.0.dll.a(d000335.o)
                                                  mrp-relation.o
                                                  mrp-task.o
g_value_set_float                                 C:/MinGW/msys/1.0/dev/lib/libgobject-2.0.dll.a(d000337.o)
                                                  mrp-resource.o
g_value_set_int                                   C:/MinGW/msys/1.0/dev/lib/libgobject-2.0.dll.a(d000340.o)
                                                  mrp-relation.o
                                                  mrp-task.o
                                                  mrp-resource.o
                                                  mrp-qualification.o
                                                  mrp-group-assignment.o
                                                  mrp-assignment.o
g_value_set_long                                  C:/MinGW/msys/1.0/dev/lib/libgobject-2.0.dll.a(d000342.o)
                                                  mrp-task.o
                                                  mrp-project.o
g_value_set_object                                C:/MinGW/msys/1.0/dev/lib/libgobject-2.0.dll.a(d000343.o)
                                                  mrp-relation.o
                                                  mrp-task.o
                                                  mrp-task-manager.o
                                                  mrp-resource.o
                                                  mrp-project.o
                                                  mrp-object.o
                                                  mrp-calendar.o
                                                  mrp-qualification.o
                                                  mrp-group-assignment.o
                                                  mrp-assignment.o
g_value_set_pointer                               C:/MinGW/msys/1.0/dev/lib/libgobject-2.0.dll.a(d000347.o)
                                                  mrp-resource.o
                                                  mrp-project.o
g_value_set_string                                C:/MinGW/msys/1.0/dev/lib/libgobject-2.0.dll.a(d000350.o)
                                                  mrp-task.o
                                                  mrp-resource.o
                                                  mrp-project.o
                                                  mrp-group.o
                                                  mrp-calendar.o
                                                  mrp-qualification.o
g_value_unset                                     C:/MinGW/msys/1.0/dev/lib/libgobject-2.0.dll.a(d000365.o)
                                                  mrp-object.o
g_win32_get_package_installation_directory_of_module C:/MinGW/msys/1.0/dev/lib/libglib-2.0.dll.a(d001410.o)
                                                  mrp-paths-win32.o
getCriticalTasks                                  mrp-task-manager.o
gmtime                                            c:/mingw/bin/../lib/gcc/mingw32/4.5.0/../../../libmsvcrt.a(duyms00641.o)
                                                  mrp-time.o
imrp_application_get_all_file_readers             mrp-application.o
                                                  mrp-project.o
imrp_application_get_all_file_writers             mrp-application.o
                                                  mrp-project.o
imrp_application_id_remove_data                   mrp-application.o
imrp_application_id_set_data                      mrp-application.o
                                                  mrp-object.o
imrp_application_register_reader                  mrp-application.o
imrp_application_register_writer                  mrp-application.o
imrp_calendar_replace_day                         mrp-calendar.o
                                                  mrp-project.o
imrp_day_setup_defaults                           mrp-day.o
                                                  mrp-calendar.o
imrp_group_add_assignment                         mrp-group.o
imrp_project_add_calendar_day                     mrp-project.o
                                                  mrp-day.o
imrp_project_get_calendar_days                    mrp-project.o
                                                  mrp-day.o
imrp_project_get_task_manager                     mrp-project.o
                                                  mrp-task.o
                                                  mrp-task-manager.o
imrp_project_property_changed                     mrp-project.o
                                                  mrp-property.o
imrp_project_remove_calendar_day                  mrp-project.o
                                                  mrp-day.o
imrp_project_set_groups                           mrp-project.o
imrp_project_set_needs_saving                     mrp-project.o
                                                  mrp-object.o
                                                  mrp-calendar.o
imrp_project_set_qualifications                   mrp-project.o
imrp_project_set_resources                        mrp-project.o
imrp_project_signal_calendar_tree_changed         mrp-project.o
                                                  mrp-calendar.o
imrp_project_task_inserted                        mrp-project.o
                                                  mrp-task-manager.o
imrp_project_task_moved                           mrp-project.o
                                                  mrp-task-manager.o
imrp_property_set_project                         mrp-property.o
                                                  mrp-project.o
imrp_resource_add_assignment                      mrp-resource.o
imrp_storage_module_set_project                   mrp-storage-module.o
                                                  mrp-project.o
imrp_task_add_assignment                          mrp-task.o
                                                  mrp-resource.o
imrp_task_add_group_assignment                    mrp-task.o
                                                  mrp-group.o
imrp_task_detach                                  mrp-task.o
                                                  mrp-task-manager.o
imrp_task_get_constraint                          mrp-task.o
                                                  mrp-task-manager.o
imrp_task_get_depth                               mrp-task.o
imrp_task_get_graph_node                          mrp-task.o
                                                  mrp-task-manager.o
imrp_task_get_needc                               mrp-task.o
imrp_task_get_needit                              mrp-task.o
imrp_task_get_node                                mrp-task.o
                                                  mrp-task-manager.o
imrp_task_get_visited                             mrp-task.o
                                                  mrp-task-manager.o
imrp_task_insert_child                            mrp-task.o
                                                  mrp-task-manager.o
imrp_task_peek_predecessors                       mrp-task.o
                                                  mrp-task-manager.o
imrp_task_peek_successors                         mrp-task.o
                                                  mrp-task-manager.o
imrp_task_reattach                                mrp-task.o
                                                  mrp-task-manager.o
imrp_task_reattach_pos                            mrp-task.o
imrp_task_remove_subtree                          mrp-task.o
                                                  mrp-task-manager.o
imrp_task_set_constraint                          mrp-task.o
imrp_task_set_duration                            mrp-task.o
                                                  mrp-task-manager.o
imrp_task_set_finish                              mrp-task.o
                                                  mrp-task-manager.o
imrp_task_set_latest_finish                       mrp-task.o
                                                  mrp-task-manager.o
imrp_task_set_latest_start                        mrp-task.o
                                                  mrp-task-manager.o
imrp_task_set_needc                               mrp-task.o
imrp_task_set_needit                              mrp-task.o
imrp_task_set_start                               mrp-task.o
                                                  mrp-task-manager.o
imrp_task_set_visited                             mrp-task.o
                                                  mrp-task-manager.o
imrp_task_set_work                                mrp-task.o
                                                  mrp-task-manager.o
imrp_task_set_work_start                          mrp-task.o
                                                  mrp-task-manager.o
imrp_time_init                                    mrp-time.o
                                                  mrp-application.o
intl_dll_iname                                    C:/MinGW/msys/1.0/dev/lib/libintl.dll.a(d000031.o)
                                                  C:/MinGW/msys/1.0/dev/lib/libintl.dll.a(d000000.o)
isNotOccupiedTask                                 mrp-task-manager.o
isOccupiedTimeTasks                               mrp-task-manager.o
libglib_2_0_0_dll_iname                           C:/MinGW/msys/1.0/dev/lib/libglib-2.0.dll.a(d001426.o)
                                                  C:/MinGW/msys/1.0/dev/lib/libglib-2.0.dll.a(d000000.o)
libgmodule_2_0_0_dll_iname                        C:/MinGW/msys/1.0/dev/lib/libgmodule-2.0.dll.a(d000009.o)
                                                  C:/MinGW/msys/1.0/dev/lib/libgmodule-2.0.dll.a(d000000.o)
libgobject_2_0_0_dll_iname                        C:/MinGW/msys/1.0/dev/lib/libgobject-2.0.dll.a(d000368.o)
                                                  C:/MinGW/msys/1.0/dev/lib/libgobject-2.0.dll.a(d000000.o)
libintl_bind_textdomain_codeset                   C:/MinGW/msys/1.0/dev/lib/libintl.dll.a(d000010.o)
                                                  mrp-application.o
libintl_bindtextdomain                            C:/MinGW/msys/1.0/dev/lib/libintl.dll.a(d000011.o)
                                                  mrp-application.o
libintl_gettext                                   C:/MinGW/msys/1.0/dev/lib/libintl.dll.a(d000017.o)
                                                  mrp-property.o
                                                  mrp-task.o
                                                  mrp-task-manager.o
                                                  mrp-project.o
                                                  mrp-file-module.o
                                                  mrp-day.o
libintl_printf                                    C:/MinGW/msys/1.0/dev/lib/libintl.dll.a(d000019.o)
                                                  mrp-group.o
libintl_snprintf                                  C:/MinGW/msys/1.0/dev/lib/libintl.dll.a(d000022.o)
                                                  mrp-time.o
localtime                                         c:/mingw/bin/../lib/gcc/mingw32/4.5.0/../../../libmsvcrt.a(duyms00672.o)
                                                  mrp-time.o
malloc                                            c:/mingw/bin/../lib/gcc/mingw32/4.5.0/../../../libmsvcrt.a(duyms00676.o)
                                                  c:/mingw/bin/../lib/gcc/mingw32/4.5.0/../../../dllcrt2.o
memcpy                                            c:/mingw/bin/../lib/gcc/mingw32/4.5.0/../../../libmsvcrt.a(duyms00682.o)
                                                  c:/mingw/bin/../lib/gcc/mingw32/4.5.0/../../../libmingw32.a(pseudo-reloc.o)
                                                  mrp-time.o
                                                  mrp-task.o
                                                  mrp-calendar.o
memset                                            c:/mingw/bin/../lib/gcc/mingw32/4.5.0/../../../libmsvcrt.a(duyms00684.o)
                                                  mrp-time.o
                                                  mrp-object.o
mingw_initltsdrot_force                           c:/mingw/bin/../lib/gcc/mingw32/4.5.0/../../../libmingw32.a(tlssup.o)
mingw_initltsdyn_force                            c:/mingw/bin/../lib/gcc/mingw32/4.5.0/../../../libmingw32.a(tlssup.o)
mingw_initltssuo_force                            c:/mingw/bin/../lib/gcc/mingw32/4.5.0/../../../libmingw32.a(tlssup.o)
mktime                                            c:/mingw/bin/../lib/gcc/mingw32/4.5.0/../../../libmsvcrt.a(duyms00685.o)
                                                  mrp-time.o
mrp_application_get_type                          mrp-application.o
                                                  mrp-file-module.o
mrp_application_get_unique_id                     mrp-application.o
                                                  mrp-object.o
mrp_application_id_get_data                       mrp-application.o
mrp_application_new                               mrp-application.o
mrp_assignment_get_resource                       mrp-assignment.o
                                                  mrp-task.o
                                                  mrp-task-manager.o
mrp_assignment_get_task                           mrp-assignment.o
                                                  mrp-task-manager.o
                                                  mrp-resource.o
mrp_assignment_get_type                           mrp-assignment.o
                                                  mrp-task.o
                                                  mrp-resource.o
mrp_assignment_get_units                          mrp-assignment.o
                                                  mrp-task.o
                                                  mrp-task-manager.o
mrp_assignment_new                                mrp-assignment.o
mrp_calendar_add                                  mrp-calendar.o
mrp_calendar_copy                                 mrp-calendar.o
mrp_calendar_day_get_intervals                    mrp-calendar.o
                                                  mrp-task-manager.o
mrp_calendar_day_get_total_work                   mrp-calendar.o
mrp_calendar_day_set_intervals                    mrp-calendar.o
                                                  mrp-project.o
mrp_calendar_derive                               mrp-calendar.o
                                                  mrp-project.o
mrp_calendar_get_all_overridden_dates             mrp-calendar.o
mrp_calendar_get_children                         mrp-calendar.o
                                                  mrp-project.o
mrp_calendar_get_day                              mrp-calendar.o
                                                  mrp-task-manager.o
mrp_calendar_get_default_day                      mrp-calendar.o
mrp_calendar_get_name                             mrp-calendar.o
mrp_calendar_get_overridden_days                  mrp-calendar.o
mrp_calendar_get_parent                           mrp-calendar.o
mrp_calendar_get_type                             mrp-calendar.o
                                                  mrp-project.o
mrp_calendar_new                                  mrp-calendar.o
mrp_calendar_remove                               mrp-calendar.o
                                                  mrp-project.o
mrp_calendar_reparent                             mrp-calendar.o
mrp_calendar_set_days                             mrp-calendar.o
mrp_calendar_set_default_days                     mrp-calendar.o
                                                  mrp-project.o
mrp_calendar_set_name                             mrp-calendar.o
mrp_constraint_get_type                           mrp-task.o
mrp_day_add                                       mrp-day.o
mrp_day_get_all                                   mrp-day.o
mrp_day_get_description                           mrp-day.o
mrp_day_get_id                                    mrp-day.o
                                                  mrp-project.o
mrp_day_get_name                                  mrp-day.o
                                                  mrp-project.o
mrp_day_get_nonwork                               mrp-day.o
                                                  mrp-project.o
mrp_day_get_type                                  mrp-day.o
mrp_day_get_use_base                              mrp-day.o
                                                  mrp-calendar.o
mrp_day_get_work                                  mrp-day.o
                                                  mrp-project.o
mrp_day_ref                                       mrp-day.o
                                                  mrp-project.o
                                                  mrp-calendar.o
mrp_day_remove                                    mrp-day.o
mrp_day_set_description                           mrp-day.o
mrp_day_set_name                                  mrp-day.o
mrp_day_unref                                     mrp-day.o
                                                  mrp-project.o
                                                  mrp-calendar.o
mrp_error_quark                                   mrp-error.o
                                                  mrp-task.o
                                                  mrp-task-manager.o
                                                  mrp-project.o
                                                  mrp-file-module.o
mrp_file_module_init                              mrp-file-module.o
mrp_file_module_load_all                          mrp-file-module.o
                                                  mrp-application.o
mrp_file_module_new                               mrp-file-module.o
mrp_file_reader_read_string                       mrp-file-module.o
                                                  mrp-project.o
mrp_file_writer_get_mime_type                     mrp-file-module.o
mrp_file_writer_get_string                        mrp-file-module.o
mrp_file_writer_write                             mrp-file-module.o
                                                  mrp-project.o
mrp_group_assign                                  mrp-group.o
mrp_group_assignment_get_group                    mrp-group-assignment.o
                                                  mrp-task.o
mrp_group_assignment_get_task                     mrp-group-assignment.o
                                                  mrp-group.o
mrp_group_assignment_get_type                     mrp-group-assignment.o
                                                  mrp-task.o
                                                  mrp-group.o
mrp_group_assignment_get_units                    mrp-group-assignment.o
mrp_group_assignment_new                          mrp-group-assignment.o
mrp_group_get_assignments                         mrp-group.o
mrp_group_get_name                                mrp-group.o
                                                  mrp-project.o
mrp_group_get_type                                mrp-group.o
                                                  mrp-task.o
                                                  mrp-resource.o
                                                  mrp-project.o
                                                  mrp-group-assignment.o
mrp_group_new                                     mrp-group.o
mrp_group_set_name                                mrp-group.o
mrp_interval_copy                                 mrp-calendar.o
mrp_interval_get_absolute                         mrp-calendar.o
                                                  mrp-task-manager.o
mrp_interval_get_type                             mrp-calendar.o
mrp_interval_new                                  mrp-calendar.o
                                                  mrp-project.o
mrp_interval_ref                                  mrp-calendar.o
mrp_interval_set_absolute                         mrp-calendar.o
mrp_interval_unref                                mrp-calendar.o
                                                  mrp-project.o
mrp_marshal_VOID__LONG_POINTER                    mrp-marshal.o
                                                  mrp-project.o
mrp_marshal_VOID__OBJECT_INT                      mrp-marshal.o
                                                  mrp-task.o
mrp_marshal_VOID__OBJECT_OBJECT_OBJECT_BOOLEAN    mrp-marshal.o
mrp_marshal_VOID__POINTER_POINTER                 mrp-marshal.o
                                                  mrp-object.o
mrp_object_changed                                mrp-object.o
                                                  mrp-relation.o
                                                  mrp-task.o
                                                  mrp-resource.o
                                                  mrp-group.o
                                                  mrp-qualification.o
                                                  mrp-group-assignment.o
                                                  mrp-assignment.o
mrp_object_get                                    mrp-object.o
                                                  mrp-task.o
mrp_object_get_id                                 mrp-object.o
mrp_object_get_project                            mrp-object.o
                                                  mrp-task.o
                                                  mrp-task-manager.o
                                                  mrp-resource.o
mrp_object_get_properties                         mrp-object.o
mrp_object_get_property                           mrp-object.o
mrp_object_get_type                               mrp-object.o
                                                  mrp-relation.o
                                                  mrp-task.o
                                                  mrp-task-manager.o
                                                  mrp-resource.o
                                                  mrp-project.o
                                                  mrp-group.o
                                                  mrp-calendar.o
                                                  mrp-qualification.o
                                                  mrp-group-assignment.o
                                                  mrp-assignment.o
mrp_object_get_valist                             mrp-object.o
mrp_object_removed                                mrp-object.o
                                                  mrp-task.o
                                                  mrp-resource.o
                                                  mrp-project.o
                                                  mrp-group.o
mrp_object_set                                    mrp-object.o
                                                  mrp-task.o
                                                  mrp-resource.o
                                                  mrp-group.o
mrp_object_set_id                                 mrp-object.o
mrp_object_set_property                           mrp-object.o
mrp_object_set_valist                             mrp-object.o
mrp_param_spec_time                               mrp-time.o
                                                  mrp-property.o
                                                  mrp-task.o
                                                  mrp-project.o
mrp_paths_get_dtd_dir                             mrp-paths-win32.o
mrp_paths_get_file_modules_dir                    mrp-paths-win32.o
                                                  mrp-file-module.o
mrp_paths_get_glade_dir                           mrp-paths-win32.o
mrp_paths_get_image_dir                           mrp-paths-win32.o
mrp_paths_get_locale_dir                          mrp-paths-win32.o
                                                  mrp-application.o
mrp_paths_get_plugin_dir                          mrp-paths-win32.o
mrp_paths_get_sql_dir                             mrp-paths-win32.o
mrp_paths_get_storagemodule_dir                   mrp-paths-win32.o
                                                  mrp-storage-module-factory.o
mrp_paths_get_stylesheet_dir                      mrp-paths-win32.o
mrp_paths_get_ui_dir                              mrp-paths-win32.o
mrp_project_add_group                             mrp-project.o
mrp_project_add_property                          mrp-project.o
mrp_project_add_qualification                     mrp-project.o
mrp_project_add_resource                          mrp-project.o
mrp_project_calculate_summary_duration            mrp-project.o
mrp_project_calculate_task_work                   mrp-project.o
mrp_project_close                                 mrp-project.o
mrp_project_export                                mrp-project.o
mrp_project_get_all_tasks                         mrp-project.o
                                                  mrp-task-manager.o
mrp_project_get_app                               mrp-project.o
mrp_project_get_block_scheduling                  mrp-project.o
                                                  mrp-object.o
mrp_project_get_calendar                          mrp-project.o
                                                  mrp-task-manager.o
                                                  mrp-calendar.o
mrp_project_get_calendar_day_by_id                mrp-project.o
mrp_project_get_group_by_name                     mrp-project.o
mrp_project_get_groups                            mrp-project.o
mrp_project_get_project_start                     mrp-project.o
                                                  mrp-task.o
                                                  mrp-task-manager.o
mrp_project_get_properties_from_type              mrp-project.o
                                                  mrp-object.o
mrp_project_get_property                          mrp-project.o
                                                  mrp-object.o
mrp_project_get_qualifications                    mrp-project.o
mrp_project_get_resource_by_name                  mrp-project.o
mrp_project_get_resources                         mrp-project.o
                                                  mrp-task-manager.o
                                                  mrp-calendar.o
mrp_project_get_root_calendar                     mrp-project.o
                                                  mrp-calendar.o
mrp_project_get_root_task                         mrp-project.o
mrp_project_get_task_by_name                      mrp-project.o
mrp_project_get_type                              mrp-project.o
                                                  mrp-property.o
                                                  mrp-storage-module.o
                                                  mrp-object.o
                                                  mrp-calendar.o
                                                  mrp-qualification.o
mrp_project_get_uri                               mrp-project.o
mrp_project_has_property                          mrp-project.o
mrp_project_insert_task                           mrp-project.o
mrp_project_is_empty                              mrp-project.o
mrp_project_load                                  mrp-project.o
mrp_project_load_from_xml                         mrp-project.o
mrp_project_move_task                             mrp-project.o
mrp_project_needs_saving                          mrp-project.o
mrp_project_new                                   mrp-project.o
mrp_project_remove_group                          mrp-project.o
mrp_project_remove_property                       mrp-project.o
mrp_project_remove_qualification                  mrp-project.o
mrp_project_remove_resource                       mrp-project.o
mrp_project_remove_task                           mrp-project.o
mrp_project_reschedule                            mrp-project.o
                                                  mrp-resource.o
mrp_project_save                                  mrp-project.o
mrp_project_save_as                               mrp-project.o
mrp_project_save_to_xml                           mrp-project.o
mrp_project_set_block_scheduling                  mrp-project.o
                                                  mrp-object.o
mrp_project_set_project_start                     mrp-project.o
mrp_project_set_uri                               mrp-project.o
mrp_project_task_traverse                         mrp-project.o
mrp_property_get_description                      mrp-property.o
mrp_property_get_label                            mrp-property.o
mrp_property_get_name                             mrp-property.o
mrp_property_get_property_type                    mrp-property.o
mrp_property_get_type                             mrp-property.o
mrp_property_get_user_defined                     mrp-property.o
mrp_property_new                                  mrp-property.o
mrp_property_ref                                  mrp-property.o
                                                  mrp-object.o
mrp_property_set_description                      mrp-property.o
mrp_property_set_label                            mrp-property.o
mrp_property_set_user_defined                     mrp-property.o
                                                  mrp-project.o
mrp_property_type_as_string                       mrp-property.o
mrp_property_type_get_type                        mrp-types.o
mrp_property_unref                                mrp-property.o
                                                  mrp-object.o
mrp_qualification_get_id                          mrp-qualification.o
mrp_qualification_get_name                        mrp-qualification.o
mrp_qualification_get_note                        mrp-qualification.o
mrp_qualification_get_project                     mrp-qualification.o
mrp_qualification_get_type                        mrp-qualification.o
                                                  mrp-task.o
                                                  mrp-resource.o
                                                  mrp-project.o
mrp_qualification_new                             mrp-qualification.o
mrp_qualification_set_id                          mrp-qualification.o
                                                  mrp-project.o
mrp_qualification_set_name                        mrp-qualification.o
mrp_relation_get_lag                              mrp-relation.o
                                                  mrp-task-manager.o
mrp_relation_get_predecessor                      mrp-relation.o
                                                  mrp-task.o
                                                  mrp-task-manager.o
mrp_relation_get_relation_type                    mrp-relation.o
                                                  mrp-task-manager.o
mrp_relation_get_successor                        mrp-relation.o
                                                  mrp-task.o
                                                  mrp-task-manager.o
mrp_relation_get_type                             mrp-relation.o
                                                  mrp-task.o
mrp_relation_type_get_type                        mrp-types.o
                                                  mrp-relation.o
mrp_resource_assign                               mrp-resource.o
                                                  mrp-task-manager.o
mrp_resource_compare                              mrp-resource.o
                                                  mrp-task.o
mrp_resource_get_assigned_tasks                   mrp-resource.o
mrp_resource_get_assignments                      mrp-resource.o
mrp_resource_get_calendar                         mrp-resource.o
                                                  mrp-task-manager.o
                                                  mrp-calendar.o
mrp_resource_get_hasc                             mrp-resource.o
mrp_resource_get_hasit                            mrp-resource.o
mrp_resource_get_name                             mrp-resource.o
                                                  mrp-task-manager.o
                                                  mrp-project.o
mrp_resource_get_note                             mrp-resource.o
mrp_resource_get_short_name                       mrp-resource.o
mrp_resource_get_type                             mrp-resource.o
                                                  mrp-task.o
                                                  mrp-project.o
                                                  mrp-assignment.o
mrp_resource_new                                  mrp-resource.o
mrp_resource_set_calendar                         mrp-resource.o
                                                  mrp-calendar.o
mrp_resource_set_hasc                             mrp-resource.o
mrp_resource_set_hasit                            mrp-resource.o
mrp_resource_set_name                             mrp-resource.o
mrp_resource_set_short_name                       mrp-resource.o
mrp_storage_module_factory_create_module          mrp-storage-module-factory.o
                                                  mrp-project.o
mrp_storage_module_factory_get                    mrp-storage-module-factory.o
                                                  mrp-project.o
mrp_storage_module_factory_get_type               mrp-storage-module-factory.o
mrp_storage_module_from_xml                       mrp-storage-module.o
mrp_storage_module_get_type                       mrp-storage-module.o
mrp_storage_module_load                           mrp-storage-module.o
                                                  mrp-project.o
mrp_storage_module_save                           mrp-storage-module.o
                                                  mrp-project.o
mrp_storage_module_to_xml                         mrp-storage-module.o
                                                  mrp-project.o
mrp_string_list_copy                              mrp-types.o
                                                  mrp-project.o
mrp_string_list_free                              mrp-types.o
                                                  mrp-project.o
mrp_task_add_predecessor                          mrp-task.o
mrp_task_compare                                  mrp-task.o
                                                  mrp-task-manager.o
                                                  mrp-resource.o
mrp_task_get_assigned_resources                   mrp-task.o
                                                  mrp-task-manager.o
mrp_task_get_assignment                           mrp-task.o
mrp_task_get_assignments                          mrp-task.o
                                                  mrp-task-manager.o
mrp_task_get_cost                                 mrp-task.o
mrp_task_get_critical                             mrp-task.o
                                                  mrp-task-manager.o
mrp_task_get_duration                             mrp-task.o
                                                  mrp-task-manager.o
mrp_task_get_finish                               mrp-task.o
                                                  mrp-task-manager.o
mrp_task_get_first_child                          mrp-task.o
                                                  mrp-task-manager.o
mrp_task_get_group_assignment                     mrp-task.o
mrp_task_get_id                                   mrp-task.o
mrp_task_get_latest_finish                        mrp-task.o
                                                  mrp-task-manager.o
mrp_task_get_latest_start                         mrp-task.o
                                                  mrp-task-manager.o
mrp_task_get_n_children                           mrp-task.o
                                                  mrp-task-manager.o
mrp_task_get_name                                 mrp-task.o
                                                  mrp-task-manager.o
                                                  mrp-project.o
                                                  mrp-group.o
mrp_task_get_next_sibling                         mrp-task.o
                                                  mrp-task-manager.o
mrp_task_get_note                                 mrp-task.o
mrp_task_get_nres                                 mrp-task.o
mrp_task_get_nth_child                            mrp-task.o
mrp_task_get_parent                               mrp-task.o
                                                  mrp-task-manager.o
mrp_task_get_percent_complete                     mrp-task.o
mrp_task_get_position                             mrp-task.o
mrp_task_get_predecessor_relation                 mrp-task.o
mrp_task_get_predecessor_relations                mrp-task.o
mrp_task_get_prev_sibling                         mrp-task.o
mrp_task_get_priority                             mrp-task.o
mrp_task_get_probability                          mrp-task.o
mrp_task_get_relation                             mrp-task.o
mrp_task_get_sched                                mrp-task.o
                                                  mrp-task-manager.o
mrp_task_get_start                                mrp-task.o
                                                  mrp-task-manager.o
mrp_task_get_successor_relation                   mrp-task.o
mrp_task_get_successor_relations                  mrp-task.o
mrp_task_get_task_type                            mrp-task.o
                                                  mrp-task-manager.o
mrp_task_get_task_virtual_type                    mrp-task.o
mrp_task_get_type                                 mrp-task.o
                                                  mrp-relation.o
                                                  mrp-task-manager.o
                                                  mrp-resource.o
                                                  mrp-project.o
                                                  mrp-group.o
                                                  mrp-group-assignment.o
                                                  mrp-assignment.o
mrp_task_get_unit_ivals                           mrp-task.o
mrp_task_get_work                                 mrp-task.o
                                                  mrp-task-manager.o
mrp_task_get_work_start                           mrp-task.o
                                                  mrp-task-manager.o
mrp_task_has_relation                             mrp-task.o
mrp_task_has_relation_to                          mrp-task.o
mrp_task_invalidate_cost                          mrp-task.o
                                                  mrp-task-manager.o
                                                  mrp-resource.o
mrp_task_manager_calculate_summary_duration       mrp-task-manager.o
                                                  mrp-project.o
mrp_task_manager_calculate_task_work              mrp-task-manager.o
                                                  mrp-project.o
mrp_task_manager_check_move                       mrp-task-manager.o
mrp_task_manager_check_predecessor                mrp-task-manager.o
                                                  mrp-task.o
mrp_task_manager_dump_task_list                   mrp-task-manager.o
mrp_task_manager_dump_task_tree                   mrp-task-manager.o
mrp_task_manager_get_all_tasks                    mrp-task-manager.o
                                                  mrp-project.o
mrp_task_manager_get_block_scheduling             mrp-task-manager.o
                                                  mrp-project.o
mrp_task_manager_get_root                         mrp-task-manager.o
                                                  mrp-project.o
mrp_task_manager_get_type                         mrp-task-manager.o
mrp_task_manager_insert_task                      mrp-task-manager.o
                                                  mrp-project.o
mrp_task_manager_move_task                        mrp-task-manager.o
                                                  mrp-project.o
mrp_task_manager_new                              mrp-task-manager.o
                                                  mrp-project.o
mrp_task_manager_rebuild                          mrp-task-manager.o
mrp_task_manager_recalc                           mrp-task-manager.o
                                                  mrp-project.o
mrp_task_manager_remove_task                      mrp-task-manager.o
                                                  mrp-project.o
mrp_task_manager_set_block_scheduling             mrp-task-manager.o
                                                  mrp-project.o
mrp_task_manager_set_root                         mrp-task-manager.o
mrp_task_manager_traverse                         mrp-task-manager.o
                                                  mrp-project.o
mrp_task_new                                      mrp-task.o
                                                  mrp-task-manager.o
mrp_task_remove_predecessor                       mrp-task.o
mrp_task_reset_constraint                         mrp-task.o
mrp_task_sched_get_type                           mrp-types.o
                                                  mrp-task.o
mrp_task_set_id                                   mrp-task.o
mrp_task_set_name                                 mrp-task.o
mrp_task_set_probability                          mrp-task.o
mrp_task_set_task_type                            mrp-task.o
mrp_task_set_task_virtual_type                    mrp-task.o
mrp_task_set_unit_ivals                           mrp-task.o
                                                  mrp-task-manager.o
mrp_task_type_get_type                            mrp-types.o
                                                  mrp-task.o
mrp_task_type_get_virtual_type                    mrp-types.o
                                                  mrp-task.o
mrp_time2_add_days                                mrp-time.o
mrp_time2_add_hours                               mrp-time.o
mrp_time2_add_minutes                             mrp-time.o
mrp_time2_add_months                              mrp-time.o
mrp_time2_add_seconds                             mrp-time.o
mrp_time2_add_years                               mrp-time.o
mrp_time2_align_next                              mrp-time.o
mrp_time2_align_prev                              mrp-time.o
mrp_time2_clear                                   mrp-time.o
mrp_time2_compare                                 mrp-time.o
mrp_time2_copy                                    mrp-time.o
mrp_time2_debug_print                             mrp-time.o
mrp_time2_free                                    mrp-time.o
mrp_time2_get_date                                mrp-time.o
mrp_time2_get_day_name                            mrp-time.o
mrp_time2_get_epoch                               mrp-time.o
mrp_time2_get_month_initial                       mrp-time.o
mrp_time2_get_month_name                          mrp-time.o
mrp_time2_get_time                                mrp-time.o
mrp_time2_get_week_number                         mrp-time.o
mrp_time2_new                                     mrp-time.o
mrp_time2_set_date                                mrp-time.o
mrp_time2_set_epoch                               mrp-time.o
mrp_time2_set_from_string                         mrp-time.o
mrp_time2_set_time                                mrp-time.o
mrp_time2_subtract_days                           mrp-time.o
mrp_time2_subtract_hours                          mrp-time.o
mrp_time2_subtract_minutes                        mrp-time.o
mrp_time2_subtract_months                         mrp-time.o
mrp_time2_subtract_seconds                        mrp-time.o
mrp_time2_subtract_years                          mrp-time.o
mrp_time2_to_string                               mrp-time.o
mrp_time_align_day                                mrp-time.o
                                                  mrp-task.o
                                                  mrp-task-manager.o
                                                  mrp-project.o
                                                  mrp-calendar.o
mrp_time_align_next                               mrp-time.o
mrp_time_align_prev                               mrp-time.o
mrp_time_compose                                  mrp-time.o
mrp_time_current_time                             mrp-time.o
                                                  mrp-project.o
mrp_time_day_name                                 mrp-time.o
mrp_time_day_of_week                              mrp-time.o
                                                  mrp-calendar.o
mrp_time_debug_print                              mrp-time.o
mrp_time_decompose                                mrp-time.o
mrp_time_format                                   mrp-time.o
mrp_time_format_locale                            mrp-time.o
mrp_time_from_string                              mrp-time.o
mrp_time_from_tm                                  mrp-time.o
mrp_time_month_name                               mrp-time.o
mrp_time_month_name_initial                       mrp-time.o
mrp_time_to_string                                mrp-time.o
mrp_time_week_number                              mrp-time.o
project_do_save                                   mrp-project.o
putenv                                            c:/mingw/bin/../lib/gcc/mingw32/4.5.0/../../../libmoldname.a(dgzls00062.o)
                                                  mrp-time.o
renewProject                                      mrp-project.o
resourceNotEnough                                 mrp-task-manager.o
sortTasklistsByFinishTime                         mrp-task-manager.o
sortTasklistsByStartTime                          mrp-task-manager.o
sortTasklistsFunction                             mrp-task-manager.o
sortTasklistsFunctionByFinish                     mrp-task-manager.o
sscanf                                            c:/mingw/bin/../lib/gcc/mingw32/4.5.0/../../../libmsvcrt.a(duyms00712.o)
                                                  mrp-time.o
strcmp                                            c:/mingw/bin/../lib/gcc/mingw32/4.5.0/../../../libmsvcrt.a(duyms00715.o)
                                                  mrp-task.o
                                                  mrp-resource.o
                                                  mrp-project.o
                                                  mrp-group.o
                                                  mrp-qualification.o
strcpy                                            c:/mingw/bin/../lib/gcc/mingw32/4.5.0/../../../libmsvcrt.a(duyms00717.o)
                                                  mrp-time.o
strftime                                          c:/mingw/bin/../lib/gcc/mingw32/4.5.0/../../../libmsvcrt.a(duyms00720.o)
                                                  mrp-time.o
strlen                                            c:/mingw/bin/../lib/gcc/mingw32/4.5.0/../../../libmsvcrt.a(duyms00721.o)
                                                  mrp-time.o
strncmp                                           c:/mingw/bin/../lib/gcc/mingw32/4.5.0/../../../libmsvcrt.a(duyms00723.o)
                                                  mrp-project.o
strstr                                            c:/mingw/bin/../lib/gcc/mingw32/4.5.0/../../../libmsvcrt.a(duyms00728.o)
                                                  mrp-project.o
task_manager_build_dependency_graph_for_node      mrp-task-manager.o
task_remove_assignments                           mrp-task.o
theTaskResourceNumber                             mrp-task-manager.o
time                                              c:/mingw/bin/../lib/gcc/mingw32/4.5.0/../../../libmsvcrt.a(duyms00739.o)
                                                  mrp-time.o
totalduration                                     mrp-task-manager.o
vfprintf                                          c:/mingw/bin/../lib/gcc/mingw32/4.5.0/../../../libmsvcrt.a(duyms00748.o)
                                                  c:/mingw/bin/../lib/gcc/mingw32/4.5.0/../../../libmingw32.a(pseudo-reloc.o)
